---
triple:          'arm64-apple-darwin'
binary-path:     lab1
relocations:
  - { offsetInCU: 0x3F, offset: 0x3F, size: 0x8, addend: 0x0, symName: _res, symObjAddr: 0x76420, symBinAddr: 0x100018000, symSize: 0x0 }
  - { offsetInCU: 0x4A9B, offset: 0x4A9B, size: 0x8, addend: 0x0, symName: __ZNSt3__17advanceB7v160006IPimmvEEvRT_T0_, symObjAddr: 0x1BB8, symBinAddr: 0x100005878, symSize: 0x50 }
  - { offsetInCU: 0x7A5D, offset: 0x7A5D, size: 0x8, addend: 0x0, symName: __ZNSt3__124__put_character_sequenceB7v160006IcNS_11char_traitsIcEEEERNS_13basic_ostreamIT_T0_EES7_PKS4_m, symObjAddr: 0x92A4, symBinAddr: 0x10000CF64, symSize: 0x1EC }
  - { offsetInCU: 0xCE54, offset: 0xCE54, size: 0x8, addend: 0x0, symName: __ZNSt3__1neB7v160006IPiEEbRKNS_11__wrap_iterIT_EES6_, symObjAddr: 0x344, symBinAddr: 0x100004004, symSize: 0x34 }
  - { offsetInCU: 0xCE97, offset: 0xCE97, size: 0x8, addend: 0x0, symName: __ZNSt3__14swapB7v160006IiEENS_9enable_ifIXaasr21is_move_constructibleIT_EE5valuesr18is_move_assignableIS2_EE5valueEvE4typeERS2_S5_, symObjAddr: 0x4F8, symBinAddr: 0x1000041B8, symSize: 0x3C }
  - { offsetInCU: 0xDE2A, offset: 0xDE2A, size: 0x8, addend: 0x0, symName: __ZNSt3__1lsB7v160006INS_11char_traitsIcEEEERNS_13basic_ostreamIcT_EES6_PKc, symObjAddr: 0xEC0, symBinAddr: 0x100004B80, symSize: 0x48 }
  - { offsetInCU: 0xDE70, offset: 0xDE70, size: 0x8, addend: 0x0, symName: __ZNSt3__14endlB7v160006IcNS_11char_traitsIcEEEERNS_13basic_ostreamIT_T0_EES7_, symObjAddr: 0xF34, symBinAddr: 0x100004BF4, symSize: 0x58 }
  - { offsetInCU: 0xDEB0, offset: 0xDEB0, size: 0x8, addend: 0x0, symName: __ZNSt3__1neB7v160006ERKNS_21__tree_const_iteratorINS_6vectorIiNS_9allocatorIiEEEEPNS_11__tree_nodeIS4_PvEElEESB_, symObjAddr: 0x10BC, symBinAddr: 0x100004D7C, symSize: 0x34 }
  - { offsetInCU: 0xDEED, offset: 0xDEED, size: 0x8, addend: 0x0, symName: __ZNSt3__1neB7v160006IPNS_4pairIiiEEEEbRKNS_11__wrap_iterIT_EES8_, symObjAddr: 0x1214, symBinAddr: 0x100004ED4, symSize: 0x34 }
  - { offsetInCU: 0xDF30, offset: 0xDF30, size: 0x8, addend: 0x0, symName: __ZNSt3__1eqB7v160006ERKNS_21__tree_const_iteratorINS_6vectorIiNS_9allocatorIiEEEEPNS_11__tree_nodeIS4_PvEElEESB_, symObjAddr: 0x137C, symBinAddr: 0x10000503C, symSize: 0x30 }
  - { offsetInCU: 0xDF6D, offset: 0xDF6D, size: 0x8, addend: 0x0, symName: __ZNSt3__1eqB7v160006IPiEEbRKNS_11__wrap_iterIT_EES6_, symObjAddr: 0x1720, symBinAddr: 0x1000053E0, symSize: 0x48 }
  - { offsetInCU: 0xDFB0, offset: 0xDFB0, size: 0x8, addend: 0x0, symName: __ZNSt3__18distanceB7v160006IPiEENS_15iterator_traitsIT_E15difference_typeES3_S3_, symObjAddr: 0x1B4C, symBinAddr: 0x10000580C, symSize: 0x2C }
  - { offsetInCU: 0xDFF3, offset: 0xDFF3, size: 0x8, addend: 0x0, symName: __ZNSt3__14copyB7v160006IPiS1_EET0_T_S3_S2_, symObjAddr: 0x1C08, symBinAddr: 0x1000058C8, symSize: 0x40 }
  - { offsetInCU: 0xE04D, offset: 0xE04D, size: 0x8, addend: 0x0, symName: __ZNSt3__125__debug_db_invalidate_allB7v160006INS_6vectorIiNS_9allocatorIiEEEEEEvPT_, symObjAddr: 0x1F20, symBinAddr: 0x100005BE0, symSize: 0x10 }
  - { offsetInCU: 0xE07E, offset: 0xE07E, size: 0x8, addend: 0x0, symName: __ZNSt3__110__distanceB7v160006IPiEENS_15iterator_traitsIT_E15difference_typeES3_S3_NS_26random_access_iterator_tagE, symObjAddr: 0x1F30, symBinAddr: 0x100005BF0, symSize: 0x28 }
  - { offsetInCU: 0xE0CB, offset: 0xE0CB, size: 0x8, addend: 0x0, symName: __ZNSt3__121__convert_to_integralB7v160006Em, symObjAddr: 0x1FB8, symBinAddr: 0x100005C78, symSize: 0x14 }
  - { offsetInCU: 0xE0F7, offset: 0xE0F7, size: 0x8, addend: 0x0, symName: __ZNSt3__19__advanceB7v160006IPiEEvRT_NS_15iterator_traitsIS2_E15difference_typeENS_26random_access_iterator_tagE, symObjAddr: 0x1FCC, symBinAddr: 0x100005C8C, symSize: 0x28 }
  - { offsetInCU: 0xE140, offset: 0xE140, size: 0x8, addend: 0x0, symName: __ZNSt3__16__copyB7v160006INS_17_ClassicAlgPolicyEPiS2_S2_EENS_4pairIT0_T2_EES4_T1_S5_, symObjAddr: 0x1FF4, symBinAddr: 0x100005CB4, symSize: 0x44 }
  - { offsetInCU: 0xE1AC, offset: 0xE1AC, size: 0x8, addend: 0x0, symName: __ZNSt3__123__dispatch_copy_or_moveB7v160006INS_17_ClassicAlgPolicyENS_11__copy_loopIS1_EENS_14__copy_trivialEPiS5_S5_EENS_4pairIT2_T4_EES7_T3_S8_, symObjAddr: 0x2038, symBinAddr: 0x100005CF8, symSize: 0x44 }
  - { offsetInCU: 0xE22A, offset: 0xE22A, size: 0x8, addend: 0x0, symName: __ZNSt3__121__unwrap_and_dispatchB7v160006INS_10__overloadINS_11__copy_loopINS_17_ClassicAlgPolicyEEENS_14__copy_trivialEEEPiS7_S7_Li0EEENS_4pairIT0_T2_EES9_T1_SA_, symObjAddr: 0x207C, symBinAddr: 0x100005D3C, symSize: 0xB4 }
  - { offsetInCU: 0xE2B8, offset: 0xE2B8, size: 0x8, addend: 0x0, symName: __ZNSt3__114__unwrap_rangeB7v160006IPiS1_EENS_4pairIT0_S3_EET_S5_, symObjAddr: 0x2130, symBinAddr: 0x100005DF0, symSize: 0x60 }
  - { offsetInCU: 0xE489, offset: 0xE489, size: 0x8, addend: 0x0, symName: __ZNSt3__113__unwrap_iterB7v160006IPiNS_18__unwrap_iter_implIS1_Lb1EEELi0EEEDTclsrT0_8__unwrapclsr3stdE7declvalIT_EEEES5_, symObjAddr: 0x21D8, symBinAddr: 0x100005E98, symSize: 0x24 }
  - { offsetInCU: 0xE4CD, offset: 0xE4CD, size: 0x8, addend: 0x0, symName: __ZNSt3__19make_pairB7v160006IPiS1_EENS_4pairINS_18__unwrap_ref_decayIT_E4typeENS3_IT0_E4typeEEEOS4_OS7_, symObjAddr: 0x21FC, symBinAddr: 0x100005EBC, symSize: 0x38 }
  - { offsetInCU: 0xE51C, offset: 0xE51C, size: 0x8, addend: 0x0, symName: __ZNSt3__114__rewrap_rangeB7v160006IPiS1_EET_S2_T0_, symObjAddr: 0x2234, symBinAddr: 0x100005EF4, symSize: 0x2C }
  - { offsetInCU: 0xE568, offset: 0xE568, size: 0x8, addend: 0x0, symName: __ZNSt3__113__rewrap_iterB7v160006IPiS1_NS_18__unwrap_iter_implIS1_Lb1EEEEET_S4_T0_, symObjAddr: 0x2260, symBinAddr: 0x100005F20, symSize: 0x3C }
  - { offsetInCU: 0xE5BD, offset: 0xE5BD, size: 0x8, addend: 0x0, symName: __ZNSt3__119__copy_trivial_implB7v160006IiiEENS_4pairIPT_PT0_EES3_S3_S5_, symObjAddr: 0x229C, symBinAddr: 0x100005F5C, symSize: 0x84 }
  - { offsetInCU: 0xE625, offset: 0xE625, size: 0x8, addend: 0x0, symName: __ZNSt3__19make_pairB7v160006IRPiS1_EENS_4pairINS_18__unwrap_ref_decayIT_E4typeENS4_IT0_E4typeEEEOS5_OS8_, symObjAddr: 0x2320, symBinAddr: 0x100005FE0, symSize: 0x38 }
  - { offsetInCU: 0xE6C7, offset: 0xE6C7, size: 0x8, addend: 0x0, symName: __ZNSt3__112__to_addressB7v160006IiEEPT_S2_, symObjAddr: 0x23EC, symBinAddr: 0x1000060AC, symSize: 0x14 }
  - { offsetInCU: 0xE6FC, offset: 0xE6FC, size: 0x8, addend: 0x0, symName: __ZNSt3__130__uninitialized_allocator_copyB7v160006INS_9allocatorIiEEPiS3_S3_EET2_RT_T0_T1_S4_, symObjAddr: 0x2508, symBinAddr: 0x1000061C8, symSize: 0xF4 }
  - { offsetInCU: 0xE79A, offset: 0xE79A, size: 0x8, addend: 0x0, symName: __ZNSt3__122__make_exception_guardB7v160006INS_29_AllocatorDestroyRangeReverseINS_9allocatorIiEEPiEEEENS_28__exception_guard_exceptionsIT_EES7_, symObjAddr: 0x2694, symBinAddr: 0x100006354, symSize: 0x4C }
  - { offsetInCU: 0xE7D0, offset: 0xE7D0, size: 0x8, addend: 0x0, symName: __ZNSt3__119__allocator_destroyB7v160006INS_9allocatorIiEENS_16reverse_iteratorIPiEES5_EEvRT_T0_T1_, symObjAddr: 0x291C, symBinAddr: 0x1000065DC, symSize: 0x70 }
  - { offsetInCU: 0xE833, offset: 0xE833, size: 0x8, addend: 0x0, symName: __ZNSt3__1neB7v160006IPiS1_EEbRKNS_16reverse_iteratorIT_EERKNS2_IT0_EE, symObjAddr: 0x29C0, symBinAddr: 0x100006680, symSize: 0x48 }
  - { offsetInCU: 0xE87F, offset: 0xE87F, size: 0x8, addend: 0x0, symName: __ZNSt3__112__to_addressB7v160006INS_16reverse_iteratorIPiEEvEENS_5decayIDTclsr19__to_address_helperIT_EE6__callclsr3stdE7declvalIRKS5_EEEEE4typeES7_, symObjAddr: 0x2A34, symBinAddr: 0x1000066F4, symSize: 0x24 }
  - { offsetInCU: 0xE8DE, offset: 0xE8DE, size: 0x8, addend: 0x0, symName: __ZNSt3__119__libcpp_deallocateB7v160006EPvmm, symObjAddr: 0x2E5C, symBinAddr: 0x100006B1C, symSize: 0x60 }
  - { offsetInCU: 0xE943, offset: 0xE943, size: 0x8, addend: 0x0, symName: __ZNSt3__124__is_overaligned_for_newB7v160006Em, symObjAddr: 0x2EBC, symBinAddr: 0x100006B7C, symSize: 0x20 }
  - { offsetInCU: 0xE971, offset: 0xE971, size: 0x8, addend: 0x0, symName: __ZNSt3__127__do_deallocate_handle_sizeB7v160006IJSt11align_val_tEEEvPvmDpT_, symObjAddr: 0x2EDC, symBinAddr: 0x100006B9C, symSize: 0x30 }
  - { offsetInCU: 0xE9C4, offset: 0xE9C4, size: 0x8, addend: 0x0, symName: __ZNSt3__127__do_deallocate_handle_sizeB7v160006IJEEEvPvmDpT_, symObjAddr: 0x2F0C, symBinAddr: 0x100006BCC, symSize: 0x28 }
  - { offsetInCU: 0xEA02, offset: 0xEA02, size: 0x8, addend: 0x0, symName: __ZNSt3__124__libcpp_operator_deleteB7v160006IJPvSt11align_val_tEEEvDpT_, symObjAddr: 0x2F34, symBinAddr: 0x100006BF4, symSize: 0x2C }
  - { offsetInCU: 0xEA4B, offset: 0xEA4B, size: 0x8, addend: 0x0, symName: __ZNSt3__124__libcpp_operator_deleteB7v160006IJPvEEEvDpT_, symObjAddr: 0x2F60, symBinAddr: 0x100006C20, symSize: 0x24 }
  - { offsetInCU: 0xEA80, offset: 0xEA80, size: 0x8, addend: 0x0, symName: __ZNSt3__119__allocate_at_leastB7v160006INS_9allocatorIiEEEENS_19__allocation_resultINS_16allocator_traitsIT_E7pointerEEERS5_m, symObjAddr: 0x3038, symBinAddr: 0x100006CF8, symSize: 0x40 }
  - { offsetInCU: 0xEAC3, offset: 0xEAC3, size: 0x8, addend: 0x0, symName: __ZNSt3__13minB7v160006ImEERKT_S3_S3_, symObjAddr: 0x3124, symBinAddr: 0x100006DE4, symSize: 0x2C }
  - { offsetInCU: 0xECF0, offset: 0xECF0, size: 0x8, addend: 0x0, symName: __ZNSt3__13minB7v160006ImNS_6__lessImmEEEERKT_S5_S5_T0_, symObjAddr: 0x31B0, symBinAddr: 0x100006E70, symSize: 0x54 }
  - { offsetInCU: 0xED85, offset: 0xED85, size: 0x8, addend: 0x0, symName: __ZNSt3__120__throw_length_errorB7v160006EPKc, symObjAddr: 0x328C, symBinAddr: 0x100006F4C, symSize: 0x64 }
  - { offsetInCU: 0xEDAD, offset: 0xEDAD, size: 0x8, addend: 0x0, symName: __ZNSt3__117__libcpp_allocateB7v160006Emm, symObjAddr: 0x33FC, symBinAddr: 0x1000070BC, symSize: 0x60 }
  - { offsetInCU: 0xEE07, offset: 0xEE07, size: 0x8, addend: 0x0, symName: __ZNSt3__121__libcpp_operator_newB7v160006IJmSt11align_val_tEEEPvDpT_, symObjAddr: 0x345C, symBinAddr: 0x10000711C, symSize: 0x2C }
  - { offsetInCU: 0xEE54, offset: 0xEE54, size: 0x8, addend: 0x0, symName: __ZNSt3__121__libcpp_operator_newB7v160006IJmEEEPvDpT_, symObjAddr: 0x3488, symBinAddr: 0x100007148, symSize: 0x24 }
  - { offsetInCU: 0xEE8D, offset: 0xEE8D, size: 0x8, addend: 0x0, symName: __ZNSt3__13maxB7v160006ImEERKT_S3_S3_, symObjAddr: 0x34AC, symBinAddr: 0x10000716C, symSize: 0x2C }
  - { offsetInCU: 0xEED0, offset: 0xEED0, size: 0x8, addend: 0x0, symName: __ZNSt3__13maxB7v160006ImNS_6__lessImmEEEERKT_S5_S5_T0_, symObjAddr: 0x34D8, symBinAddr: 0x100007198, symSize: 0x54 }
  - { offsetInCU: 0xF383, offset: 0xF383, size: 0x8, addend: 0x0, symName: __ZNSt3__14swapB7v160006IPP4NodeEENS_9enable_ifIXaasr21is_move_constructibleIT_EE5valuesr18is_move_assignableIS5_EE5valueEvE4typeERS5_S8_, symObjAddr: 0x4E08, symBinAddr: 0x100008AC8, symSize: 0x3C }
  - { offsetInCU: 0xF3D4, offset: 0xF3D4, size: 0x8, addend: 0x0, symName: __ZNSt3__14moveB7v160006IPP4NodeS3_EET0_T_S5_S4_, symObjAddr: 0x4F38, symBinAddr: 0x100008BF8, symSize: 0x40 }
  - { offsetInCU: 0xF44A, offset: 0xF44A, size: 0x8, addend: 0x0, symName: __ZNSt3__112__to_addressB7v160006IP4NodeEEPT_S4_, symObjAddr: 0x50DC, symBinAddr: 0x100008D9C, symSize: 0x14 }
  - { offsetInCU: 0xF47F, offset: 0xF47F, size: 0x8, addend: 0x0, symName: __ZNSt3__16__moveB7v160006INS_17_ClassicAlgPolicyEPP4NodeS4_S4_EENS_4pairIT0_T2_EES6_T1_S7_, symObjAddr: 0x50F0, symBinAddr: 0x100008DB0, symSize: 0x44 }
  - { offsetInCU: 0xF4EB, offset: 0xF4EB, size: 0x8, addend: 0x0, symName: __ZNSt3__123__dispatch_copy_or_moveB7v160006INS_17_ClassicAlgPolicyENS_11__move_loopIS1_EENS_14__move_trivialEPP4NodeS7_S7_EENS_4pairIT2_T4_EES9_T3_SA_, symObjAddr: 0x5134, symBinAddr: 0x100008DF4, symSize: 0x44 }
  - { offsetInCU: 0xF569, offset: 0xF569, size: 0x8, addend: 0x0, symName: __ZNSt3__121__unwrap_and_dispatchB7v160006INS_10__overloadINS_11__move_loopINS_17_ClassicAlgPolicyEEENS_14__move_trivialEEEPP4NodeS9_S9_Li0EEENS_4pairIT0_T2_EESB_T1_SC_, symObjAddr: 0x5178, symBinAddr: 0x100008E38, symSize: 0xB4 }
  - { offsetInCU: 0xF5F7, offset: 0xF5F7, size: 0x8, addend: 0x0, symName: __ZNSt3__114__unwrap_rangeB7v160006IPP4NodeS3_EENS_4pairIT0_S5_EET_S7_, symObjAddr: 0x522C, symBinAddr: 0x100008EEC, symSize: 0x60 }
  - { offsetInCU: 0xF7BB, offset: 0xF7BB, size: 0x8, addend: 0x0, symName: __ZNSt3__113__unwrap_iterB7v160006IPP4NodeNS_18__unwrap_iter_implIS3_Lb1EEELi0EEEDTclsrT0_8__unwrapclsr3stdE7declvalIT_EEEES7_, symObjAddr: 0x52D4, symBinAddr: 0x100008F94, symSize: 0x24 }
  - { offsetInCU: 0xF7FF, offset: 0xF7FF, size: 0x8, addend: 0x0, symName: __ZNSt3__19make_pairB7v160006IPP4NodeS3_EENS_4pairINS_18__unwrap_ref_decayIT_E4typeENS5_IT0_E4typeEEEOS6_OS9_, symObjAddr: 0x52F8, symBinAddr: 0x100008FB8, symSize: 0x38 }
  - { offsetInCU: 0xF84E, offset: 0xF84E, size: 0x8, addend: 0x0, symName: __ZNSt3__114__rewrap_rangeB7v160006IPP4NodeS3_EET_S4_T0_, symObjAddr: 0x5330, symBinAddr: 0x100008FF0, symSize: 0x2C }
  - { offsetInCU: 0xF89A, offset: 0xF89A, size: 0x8, addend: 0x0, symName: __ZNSt3__113__rewrap_iterB7v160006IPP4NodeS3_NS_18__unwrap_iter_implIS3_Lb1EEEEET_S6_T0_, symObjAddr: 0x535C, symBinAddr: 0x10000901C, symSize: 0x3C }
  - { offsetInCU: 0xF8EF, offset: 0xF8EF, size: 0x8, addend: 0x0, symName: __ZNSt3__119__copy_trivial_implB7v160006IP4NodeS2_EENS_4pairIPT_PT0_EES5_S5_S7_, symObjAddr: 0x5398, symBinAddr: 0x100009058, symSize: 0x84 }
  - { offsetInCU: 0xF957, offset: 0xF957, size: 0x8, addend: 0x0, symName: __ZNSt3__19make_pairB7v160006IRPP4NodeS3_EENS_4pairINS_18__unwrap_ref_decayIT_E4typeENS6_IT0_E4typeEEEOS7_OSA_, symObjAddr: 0x541C, symBinAddr: 0x1000090DC, symSize: 0x38 }
  - { offsetInCU: 0xF9F9, offset: 0xF9F9, size: 0x8, addend: 0x0, symName: __ZNSt3__18distanceB7v160006INS_13move_iteratorIPP4NodeEEEENS_15iterator_traitsIT_E15difference_typeES7_S7_, symObjAddr: 0x55A8, symBinAddr: 0x100009268, symSize: 0x3C }
  - { offsetInCU: 0xFA3C, offset: 0xFA3C, size: 0x8, addend: 0x0, symName: __ZNSt3__110__distanceB7v160006INS_13move_iteratorIPP4NodeEEEENS_15iterator_traitsIT_E15difference_typeES7_S7_NS_26random_access_iterator_tagE, symObjAddr: 0x56E0, symBinAddr: 0x1000093A0, symSize: 0x30 }
  - { offsetInCU: 0xFA89, offset: 0xFA89, size: 0x8, addend: 0x0, symName: __ZNSt3__1miB7v160006IPP4NodeS3_EEDTmicldtfp_4baseEcldtfp0_4baseEERKNS_13move_iteratorIT_EERKNS5_IT0_EE, symObjAddr: 0x5710, symBinAddr: 0x1000093D0, symSize: 0x48 }
  - { offsetInCU: 0xFAD8, offset: 0xFAD8, size: 0x8, addend: 0x0, symName: __ZNSt3__113move_backwardB7v160006IPP4NodeS3_EET0_T_S5_S4_, symObjAddr: 0x597C, symBinAddr: 0x10000963C, symSize: 0x40 }
  - { offsetInCU: 0xFB32, offset: 0xFB32, size: 0x8, addend: 0x0, symName: __ZNSt3__115__move_backwardB7v160006INS_17_ClassicAlgPolicyEPP4NodeS4_S4_EENS_4pairIT0_T2_EES6_T1_S7_, symObjAddr: 0x59BC, symBinAddr: 0x10000967C, symSize: 0x44 }
  - { offsetInCU: 0xFB9E, offset: 0xFB9E, size: 0x8, addend: 0x0, symName: __ZNSt3__123__dispatch_copy_or_moveB7v160006INS_17_ClassicAlgPolicyENS_20__move_backward_loopIS1_EENS_23__move_backward_trivialEPP4NodeS7_S7_EENS_4pairIT2_T4_EES9_T3_SA_, symObjAddr: 0x5A00, symBinAddr: 0x1000096C0, symSize: 0x44 }
  - { offsetInCU: 0xFC1C, offset: 0xFC1C, size: 0x8, addend: 0x0, symName: __ZNSt3__121__unwrap_and_dispatchB7v160006INS_10__overloadINS_20__move_backward_loopINS_17_ClassicAlgPolicyEEENS_23__move_backward_trivialEEEPP4NodeS9_S9_Li0EEENS_4pairIT0_T2_EESB_T1_SC_, symObjAddr: 0x5A44, symBinAddr: 0x100009704, symSize: 0xB4 }
  - { offsetInCU: 0xFCF0, offset: 0xFCF0, size: 0x8, addend: 0x0, symName: __ZNSt3__128__copy_backward_trivial_implB7v160006IP4NodeS2_EENS_4pairIPT_PT0_EES5_S5_S7_, symObjAddr: 0x5B40, symBinAddr: 0x100009800, symSize: 0x94 }
  - { offsetInCU: 0xFD58, offset: 0xFD58, size: 0x8, addend: 0x0, symName: __ZNSt3__19make_pairB7v160006IRPP4NodeS4_EENS_4pairINS_18__unwrap_ref_decayIT_E4typeENS6_IT0_E4typeEEEOS7_OSA_, symObjAddr: 0x5BD4, symBinAddr: 0x100009894, symSize: 0x38 }
  - { offsetInCU: 0xFDA7, offset: 0xFDA7, size: 0x8, addend: 0x0, symName: __ZNSt3__119__allocate_at_leastB7v160006INS_9allocatorIP4NodeEEEENS_19__allocation_resultINS_16allocator_traitsIT_E7pointerEEERS7_m, symObjAddr: 0x5DC4, symBinAddr: 0x100009A84, symSize: 0x40 }
  - { offsetInCU: 0xFDEA, offset: 0xFDEA, size: 0x8, addend: 0x0, symName: __ZNSt3__112__to_addressB7v160006I4NodeEEPT_S3_, symObjAddr: 0x6874, symBinAddr: 0x10000A534, symSize: 0x14 }
  - { offsetInCU: 0xFE1F, offset: 0xFE1F, size: 0x8, addend: 0x0, symName: __ZNSt3__1eqB7v160006IPNS_4pairIiiEEEEbRKNS_11__wrap_iterIT_EES8_, symObjAddr: 0x69B8, symBinAddr: 0x10000A678, symSize: 0x48 }
  - { offsetInCU: 0xFE62, offset: 0xFE62, size: 0x8, addend: 0x0, symName: __ZNSt3__18distanceB7v160006INS_16__deque_iteratorI4NodePKS2_RS3_PKS4_lLl102EEEEENS_15iterator_traitsIT_E15difference_typeESA_SA_, symObjAddr: 0x7338, symBinAddr: 0x10000AFF8, symSize: 0x4C }
  - { offsetInCU: 0xFEA5, offset: 0xFEA5, size: 0x8, addend: 0x0, symName: __ZNSt3__1neB7v160006ERKNS_5dequeI4NodeNS_9allocatorIS1_EEE13__deque_rangeES7_, symObjAddr: 0x7A40, symBinAddr: 0x10000B700, symSize: 0x34 }
  - { offsetInCU: 0xFEE2, offset: 0xFEE2, size: 0x8, addend: 0x0, symName: __ZNSt3__110__distanceB7v160006INS_16__deque_iteratorI4NodePKS2_RS3_PKS4_lLl102EEEEENS_15iterator_traitsIT_E15difference_typeESA_SA_NS_26random_access_iterator_tagE, symObjAddr: 0x7C44, symBinAddr: 0x10000B904, symSize: 0x38 }
  - { offsetInCU: 0xFF2F, offset: 0xFF2F, size: 0x8, addend: 0x0, symName: __ZNSt3__1miB7v160006ERKNS_16__deque_iteratorI4NodePKS1_RS2_PKS3_lLl102EEES9_, symObjAddr: 0x7C7C, symBinAddr: 0x10000B93C, symSize: 0xB0 }
  - { offsetInCU: 0xFF6C, offset: 0xFF6C, size: 0x8, addend: 0x0, symName: __ZNSt3__1neB7v160006ERKNS_16__deque_iteratorI4NodePKS1_RS2_PKS3_lLl102EEES9_, symObjAddr: 0x7D2C, symBinAddr: 0x10000B9EC, symSize: 0x34 }
  - { offsetInCU: 0xFFA9, offset: 0xFFA9, size: 0x8, addend: 0x0, symName: __ZNSt3__1eqB7v160006ERKNS_16__deque_iteratorI4NodePKS1_RS2_PKS3_lLl102EEES9_, symObjAddr: 0x7D60, symBinAddr: 0x10000BA20, symSize: 0x30 }
  - { offsetInCU: 0xFFE6, offset: 0xFFE6, size: 0x8, addend: 0x0, symName: __ZNSt3__1eqB7v160006ERKNS_5dequeI4NodeNS_9allocatorIS1_EEE13__deque_rangeES7_, symObjAddr: 0x81B4, symBinAddr: 0x10000BE74, symSize: 0x30 }
  - { offsetInCU: 0x10023, offset: 0x10023, size: 0x8, addend: 0x0, symName: __ZNSt3__1eqB7v160006ERKNS_16__deque_iteratorI4NodePS1_RS1_PS2_lLl102EEES7_, symObjAddr: 0x81E4, symBinAddr: 0x10000BEA4, symSize: 0x30 }
  - { offsetInCU: 0x10060, offset: 0x10060, size: 0x8, addend: 0x0, symName: __ZNSt3__1eqB7v160006IiNS_9allocatorIiEEEEbRKNS_6vectorIT_T0_EES8_, symObjAddr: 0x84F4, symBinAddr: 0x10000C1B4, symSize: 0x9C }
  - { offsetInCU: 0x100BE, offset: 0x100BE, size: 0x8, addend: 0x0, symName: __ZNSt3__15equalB7v160006INS_11__wrap_iterIPKiEES4_EEbT_S5_T0_, symObjAddr: 0x8590, symBinAddr: 0x10000C250, symSize: 0x50 }
  - { offsetInCU: 0x10118, offset: 0x10118, size: 0x8, addend: 0x0, symName: __ZNSt3__15equalB7v160006INS_11__wrap_iterIPKiEES4_NS_10__equal_toEEEbT_S6_T0_T1_, symObjAddr: 0x8640, symBinAddr: 0x10000C300, symSize: 0xB0 }
  - { offsetInCU: 0x10189, offset: 0x10189, size: 0x8, addend: 0x0, symName: __ZNSt3__1neB7v160006IPKiEEbRKNS_11__wrap_iterIT_EES7_, symObjAddr: 0x86F0, symBinAddr: 0x10000C3B0, symSize: 0x34 }
  - { offsetInCU: 0x10207, offset: 0x10207, size: 0x8, addend: 0x0, symName: __ZNSt3__1eqB7v160006IPKiEEbRKNS_11__wrap_iterIT_EES7_, symObjAddr: 0x8790, symBinAddr: 0x10000C450, symSize: 0x48 }
  - { offsetInCU: 0x1024A, offset: 0x1024A, size: 0x8, addend: 0x0, symName: __ZNSt3__1neB7v160006ERKNS_16__deque_iteratorI4NodePS1_RS1_PS2_lLl102EEES7_, symObjAddr: 0x8B84, symBinAddr: 0x10000C844, symSize: 0x34 }
  - { offsetInCU: 0x10287, offset: 0x10287, size: 0x8, addend: 0x0, symName: __ZNSt3__122__make_exception_guardB7v160006INS_6vectorIiNS_9allocatorIiEEE16__destroy_vectorEEENS_28__exception_guard_exceptionsIT_EES7_, symObjAddr: 0x8DB4, symBinAddr: 0x10000CA74, symSize: 0x40 }
  - { offsetInCU: 0x102BC, offset: 0x102BC, size: 0x8, addend: 0x0, symName: __ZNSt3__119__debug_db_insert_cB7v160006INS_6vectorIiNS_9allocatorIiEEEEEEvPT_, symObjAddr: 0x8E28, symBinAddr: 0x10000CAE8, symSize: 0x10 }
  - { offsetInCU: 0x102ED, offset: 0x102ED, size: 0x8, addend: 0x0, symName: __ZNSt3__118__debug_db_erase_cB7v160006INS_6vectorIiNS_9allocatorIiEEEEEEvPT_, symObjAddr: 0x9114, symBinAddr: 0x10000CDD4, symSize: 0x10 }
  - { offsetInCU: 0x1031E, offset: 0x1031E, size: 0x8, addend: 0x0, symName: __ZNSt3__116__pad_and_outputB7v160006IcNS_11char_traitsIcEEEENS_19ostreambuf_iteratorIT_T0_EES6_PKS4_S8_S8_RNS_8ios_baseES4_, symObjAddr: 0x94E0, symBinAddr: 0x10000D1A0, symSize: 0x240 }
  - { offsetInCU: 0x103ED, offset: 0x103ED, size: 0x8, addend: 0x0, symName: __ZNSt3__119__debug_db_insert_cB7v160006INS_12basic_stringIcNS_11char_traitsIcEENS_9allocatorIcEEEEEEvPT_, symObjAddr: 0x9994, symBinAddr: 0x10000D654, symSize: 0x10 }
  - { offsetInCU: 0x1041E, offset: 0x1041E, size: 0x8, addend: 0x0, symName: __ZNSt3__112__to_addressB7v160006IcEEPT_S2_, symObjAddr: 0x9A60, symBinAddr: 0x10000D720, symSize: 0x14 }
  - { offsetInCU: 0x10486, offset: 0x10486, size: 0x8, addend: 0x0, symName: __ZNSt3__19use_facetB7v160006INS_5ctypeIcEEEERKT_RKNS_6localeE, symObjAddr: 0x9D18, symBinAddr: 0x10000D9D8, symSize: 0x2C }
  - { offsetInCU: 0x10955, offset: 0x10955, size: 0x8, addend: 0x0, symName: __ZNSt3__118__constexpr_strlenB7v160006EPKc, symObjAddr: 0x9DB0, symBinAddr: 0x10000DA70, symSize: 0x24 }
  - { offsetInCU: 0x10981, offset: 0x10981, size: 0x8, addend: 0x0, symName: __ZNSt3__130__uninitialized_allocator_copyB7v160006INS_9allocatorIiEEiiLPv0EEEPT0_RT_PKS4_S9_S5_, symObjAddr: 0x9FD8, symBinAddr: 0x10000DC98, symSize: 0x38 }
  - { offsetInCU: 0x109F9, offset: 0x109F9, size: 0x8, addend: 0x0, symName: __ZNSt3__14copyB7v160006IPKiPiEET0_T_S5_S4_, symObjAddr: 0xA010, symBinAddr: 0x10000DCD0, symSize: 0x40 }
  - { offsetInCU: 0x10A53, offset: 0x10A53, size: 0x8, addend: 0x0, symName: __ZNSt3__16__copyB7v160006INS_17_ClassicAlgPolicyEPKiS3_PiEENS_4pairIT0_T2_EES6_T1_S7_, symObjAddr: 0xA050, symBinAddr: 0x10000DD10, symSize: 0x44 }
  - { offsetInCU: 0x10ABF, offset: 0x10ABF, size: 0x8, addend: 0x0, symName: __ZNSt3__123__dispatch_copy_or_moveB7v160006INS_17_ClassicAlgPolicyENS_11__copy_loopIS1_EENS_14__copy_trivialEPKiS6_PiEENS_4pairIT2_T4_EES9_T3_SA_, symObjAddr: 0xA094, symBinAddr: 0x10000DD54, symSize: 0x44 }
  - { offsetInCU: 0x10B3D, offset: 0x10B3D, size: 0x8, addend: 0x0, symName: __ZNSt3__121__unwrap_and_dispatchB7v160006INS_10__overloadINS_11__copy_loopINS_17_ClassicAlgPolicyEEENS_14__copy_trivialEEEPKiS8_PiLi0EEENS_4pairIT0_T2_EESB_T1_SC_, symObjAddr: 0xA0D8, symBinAddr: 0x10000DD98, symSize: 0xB4 }
  - { offsetInCU: 0x10BCB, offset: 0x10BCB, size: 0x8, addend: 0x0, symName: __ZNSt3__114__unwrap_rangeB7v160006IPKiS2_EENS_4pairIT0_S4_EET_S6_, symObjAddr: 0xA18C, symBinAddr: 0x10000DE4C, symSize: 0x60 }
  - { offsetInCU: 0x10D1A, offset: 0x10D1A, size: 0x8, addend: 0x0, symName: __ZNSt3__19make_pairB7v160006IPKiPiEENS_4pairINS_18__unwrap_ref_decayIT_E4typeENS5_IT0_E4typeEEEOS6_OS9_, symObjAddr: 0xA234, symBinAddr: 0x10000DEF4, symSize: 0x38 }
  - { offsetInCU: 0x10D69, offset: 0x10D69, size: 0x8, addend: 0x0, symName: __ZNSt3__114__rewrap_rangeB7v160006IPKiS2_EET_S3_T0_, symObjAddr: 0xA26C, symBinAddr: 0x10000DF2C, symSize: 0x2C }
  - { offsetInCU: 0x10DB5, offset: 0x10DB5, size: 0x8, addend: 0x0, symName: __ZNSt3__19make_pairB7v160006IPKiS2_EENS_4pairINS_18__unwrap_ref_decayIT_E4typeENS4_IT0_E4typeEEEOS5_OS8_, symObjAddr: 0xA298, symBinAddr: 0x10000DF58, symSize: 0x38 }
  - { offsetInCU: 0x10E04, offset: 0x10E04, size: 0x8, addend: 0x0, symName: __ZNSt3__113__unwrap_iterB7v160006IPKiNS_18__unwrap_iter_implIS2_Lb1EEELi0EEEDTclsrT0_8__unwrapclsr3stdE7declvalIT_EEEES6_, symObjAddr: 0xA2D0, symBinAddr: 0x10000DF90, symSize: 0x24 }
  - { offsetInCU: 0x10F6F, offset: 0x10F6F, size: 0x8, addend: 0x0, symName: __ZNSt3__112__to_addressB7v160006IKiEEPT_S3_, symObjAddr: 0xA388, symBinAddr: 0x10000E048, symSize: 0x14 }
  - { offsetInCU: 0x10FA4, offset: 0x10FA4, size: 0x8, addend: 0x0, symName: __ZNSt3__119__copy_trivial_implB7v160006IKiiEENS_4pairIPT_PT0_EES4_S4_S6_, symObjAddr: 0xA39C, symBinAddr: 0x10000E05C, symSize: 0x84 }
  - { offsetInCU: 0x1100C, offset: 0x1100C, size: 0x8, addend: 0x0, symName: __ZNSt3__19make_pairB7v160006IRPKiPiEENS_4pairINS_18__unwrap_ref_decayIT_E4typeENS6_IT0_E4typeEEEOS7_OSA_, symObjAddr: 0xA420, symBinAddr: 0x10000E0E0, symSize: 0x38 }
  - { offsetInCU: 0x1105B, offset: 0x1105B, size: 0x8, addend: 0x0, symName: __ZNSt3__113__rewrap_iterB7v160006IPKiS2_NS_18__unwrap_iter_implIS2_Lb1EEEEET_S5_T0_, symObjAddr: 0xA538, symBinAddr: 0x10000E1F8, symSize: 0x3C }
  - { offsetInCU: 0x110B0, offset: 0x110B0, size: 0x8, addend: 0x0, symName: __ZNSt3__119__debug_db_insert_cB7v160006INS_6vectorINS_4pairIiiEENS_9allocatorIS3_EEEEEEvPT_, symObjAddr: 0xA658, symBinAddr: 0x10000E318, symSize: 0x10 }
  - { offsetInCU: 0x110E1, offset: 0x110E1, size: 0x8, addend: 0x0, symName: __ZNSt3__118__debug_db_erase_cB7v160006INS_6vectorINS_4pairIiiEENS_9allocatorIS3_EEEEEEvPT_, symObjAddr: 0xA91C, symBinAddr: 0x10000E5DC, symSize: 0x10 }
  - { offsetInCU: 0x11112, offset: 0x11112, size: 0x8, addend: 0x0, symName: __ZNSt3__112__to_addressB7v160006INS_4pairIiiEEEEPT_S4_, symObjAddr: 0xAA60, symBinAddr: 0x10000E720, symSize: 0x14 }
  - { offsetInCU: 0x11147, offset: 0x11147, size: 0x8, addend: 0x0, symName: __ZNSt3__119__allocate_at_leastB7v160006INS_9allocatorINS_4pairIiiEEEEEENS_19__allocation_resultINS_16allocator_traitsIT_E7pointerEEERS7_m, symObjAddr: 0xB3FC, symBinAddr: 0x10000F0BC, symSize: 0x40 }
  - { offsetInCU: 0x1118A, offset: 0x1118A, size: 0x8, addend: 0x0, symName: __ZNSt3__142__uninitialized_allocator_move_if_noexceptB7v160006INS_9allocatorINS_4pairIiiEEEENS_16reverse_iteratorIPS3_EES7_S7_EET2_RT_T0_T1_S8_, symObjAddr: 0xB5B0, symBinAddr: 0x10000F270, symSize: 0x12C }
  - { offsetInCU: 0x1122A, offset: 0x1122A, size: 0x8, addend: 0x0, symName: __ZNSt3__14swapB7v160006IPNS_4pairIiiEEEENS_9enable_ifIXaasr21is_move_constructibleIT_EE5valuesr18is_move_assignableIS5_EE5valueEvE4typeERS5_S8_, symObjAddr: 0xB728, symBinAddr: 0x10000F3E8, symSize: 0x3C }
  - { offsetInCU: 0x1127B, offset: 0x1127B, size: 0x8, addend: 0x0, symName: __ZNSt3__125__debug_db_invalidate_allB7v160006INS_6vectorINS_4pairIiiEENS_9allocatorIS3_EEEEEEvPT_, symObjAddr: 0xB810, symBinAddr: 0x10000F4D0, symSize: 0x10 }
  - { offsetInCU: 0x112AC, offset: 0x112AC, size: 0x8, addend: 0x0, symName: __ZNSt3__122__make_exception_guardB7v160006INS_29_AllocatorDestroyRangeReverseINS_9allocatorINS_4pairIiiEEEENS_16reverse_iteratorIPS4_EEEEEENS_28__exception_guard_exceptionsIT_EESB_, symObjAddr: 0xB820, symBinAddr: 0x10000F4E0, symSize: 0x4C }
  - { offsetInCU: 0x112E2, offset: 0x112E2, size: 0x8, addend: 0x0, symName: __ZNSt3__1neB7v160006IPNS_4pairIiiEES3_EEbRKNS_16reverse_iteratorIT_EERKNS4_IT0_EE, symObjAddr: 0xB8B0, symBinAddr: 0x10000F570, symSize: 0x48 }
  - { offsetInCU: 0x1132E, offset: 0x1132E, size: 0x8, addend: 0x0, symName: __ZNSt3__112__to_addressB7v160006INS_16reverse_iteratorIPNS_4pairIiiEEEEvEENS_5decayIDTclsr19__to_address_helperIT_EE6__callclsr3stdE7declvalIRKS7_EEEEE4typeES9_, symObjAddr: 0xB8F8, symBinAddr: 0x10000F5B8, symSize: 0x24 }
  - { offsetInCU: 0x1138D, offset: 0x1138D, size: 0x8, addend: 0x0, symName: __ZNSt3__119__allocator_destroyB7v160006INS_9allocatorINS_4pairIiiEEEENS_16reverse_iteratorINS5_IPS3_EEEES8_EEvRT_T0_T1_, symObjAddr: 0xBBA8, symBinAddr: 0x10000F868, symSize: 0x70 }
  - { offsetInCU: 0x113F2, offset: 0x113F2, size: 0x8, addend: 0x0, symName: __ZNSt3__1neB7v160006INS_16reverse_iteratorIPNS_4pairIiiEEEES5_EEbRKNS1_IT_EERKNS1_IT0_EE, symObjAddr: 0xBC54, symBinAddr: 0x10000F914, symSize: 0x60 }
  - { offsetInCU: 0x1143E, offset: 0x1143E, size: 0x8, addend: 0x0, symName: __ZNSt3__112__to_addressB7v160006INS_16reverse_iteratorINS1_IPNS_4pairIiiEEEEEEvEENS_5decayIDTclsr19__to_address_helperIT_EE6__callclsr3stdE7declvalIRKS8_EEEEE4typeESA_, symObjAddr: 0xBCB4, symBinAddr: 0x10000F974, symSize: 0x24 }
  - { offsetInCU: 0x114D0, offset: 0x114D0, size: 0x8, addend: 0x0, symName: __ZNSt3__1neB7v160006ERKNS_15__tree_iteratorINS_6vectorIiNS_9allocatorIiEEEEPNS_11__tree_nodeIS4_PvEElEESB_, symObjAddr: 0xC808, symBinAddr: 0x1000104C8, symSize: 0x34 }
  - { offsetInCU: 0x1150D, offset: 0x1150D, size: 0x8, addend: 0x0, symName: __ZNSt3__1eqB7v160006ERKNS_15__tree_iteratorINS_6vectorIiNS_9allocatorIiEEEEPNS_11__tree_nodeIS4_PvEElEESB_, symObjAddr: 0xC948, symBinAddr: 0x100010608, symSize: 0x30 }
  - { offsetInCU: 0x1154A, offset: 0x1154A, size: 0x8, addend: 0x0, symName: __ZNSt3__1ltB7v160006IiNS_9allocatorIiEEEEbRKNS_6vectorIT_T0_EES8_, symObjAddr: 0xC9B0, symBinAddr: 0x100010670, symSize: 0x68 }
  - { offsetInCU: 0x11599, offset: 0x11599, size: 0x8, addend: 0x0, symName: __ZNSt3__123lexicographical_compareB7v160006INS_11__wrap_iterIPKiEES4_EEbT_S5_T0_S6_, symObjAddr: 0xCA18, symBinAddr: 0x1000106D8, symSize: 0x60 }
  - { offsetInCU: 0x11601, offset: 0x11601, size: 0x8, addend: 0x0, symName: __ZNSt3__123lexicographical_compareB7v160006INS_11__wrap_iterIPKiEES4_NS_6__lessIiiEEEEbT_S7_T0_S8_T1_, symObjAddr: 0xCA78, symBinAddr: 0x100010738, symSize: 0x64 }
  - { offsetInCU: 0x11680, offset: 0x11680, size: 0x8, addend: 0x0, symName: __ZNSt3__125__lexicographical_compareB7v160006IRNS_6__lessIiiEENS_11__wrap_iterIPKiEES7_EEbT0_S8_T1_S9_T_, symObjAddr: 0xCADC, symBinAddr: 0x10001079C, symSize: 0x11C }
  - { offsetInCU: 0x11758, offset: 0x11758, size: 0x8, addend: 0x0, symName: __ZNSt3__115__debug_db_swapB7v160006INS_6vectorIiNS_9allocatorIiEEEEEEvPT_S6_, symObjAddr: 0xD6CC, symBinAddr: 0x10001138C, symSize: 0x14 }
  - { offsetInCU: 0x11797, offset: 0x11797, size: 0x8, addend: 0x0, symName: __ZNSt3__127__tree_balance_after_insertB7v160006IPNS_16__tree_node_baseIPvEEEEvT_S5_, symObjAddr: 0xD754, symBinAddr: 0x100011414, symSize: 0x32C }
  - { offsetInCU: 0x11813, offset: 0x11813, size: 0x8, addend: 0x0, symName: __ZNSt3__120__tree_is_left_childB7v160006IPNS_16__tree_node_baseIPvEEEEbT_, symObjAddr: 0xDAC0, symBinAddr: 0x100011780, symSize: 0x2C }
  - { offsetInCU: 0x11848, offset: 0x11848, size: 0x8, addend: 0x0, symName: __ZNSt3__118__tree_left_rotateB7v160006IPNS_16__tree_node_baseIPvEEEEvT_, symObjAddr: 0xDAEC, symBinAddr: 0x1000117AC, symSize: 0xD8 }
  - { offsetInCU: 0x1188A, offset: 0x1188A, size: 0x8, addend: 0x0, symName: __ZNSt3__119__tree_right_rotateB7v160006IPNS_16__tree_node_baseIPvEEEEvT_, symObjAddr: 0xDBC4, symBinAddr: 0x100011884, symSize: 0xCC }
  - { offsetInCU: 0x118CC, offset: 0x118CC, size: 0x8, addend: 0x0, symName: __ZNSt3__142__uninitialized_allocator_move_if_noexceptB7v160006INS_9allocatorIiEENS_16reverse_iteratorIPiEES5_ivEET1_RT_T0_S9_S6_, symObjAddr: 0xE4F0, symBinAddr: 0x1000121B0, symSize: 0x78 }
  - { offsetInCU: 0x11949, offset: 0x11949, size: 0x8, addend: 0x0, symName: __ZNSt3__14swapB7v160006IPiEENS_9enable_ifIXaasr21is_move_constructibleIT_EE5valuesr18is_move_assignableIS3_EE5valueEvE4typeERS3_S6_, symObjAddr: 0xE568, symBinAddr: 0x100012228, symSize: 0x3C }
  - { offsetInCU: 0x1199A, offset: 0x1199A, size: 0x8, addend: 0x0, symName: __ZNSt3__14moveB7v160006INS_16reverse_iteratorIPiEES3_EET0_T_S5_S4_, symObjAddr: 0xE5A4, symBinAddr: 0x100012264, symSize: 0x78 }
  - { offsetInCU: 0x119F4, offset: 0x119F4, size: 0x8, addend: 0x0, symName: __ZNSt3__16__moveB7v160006INS_17_ClassicAlgPolicyENS_16reverse_iteratorIPiEES4_S4_EENS_4pairIT0_T2_EES6_T1_S7_, symObjAddr: 0xE61C, symBinAddr: 0x1000122DC, symSize: 0x64 }
  - { offsetInCU: 0x11A60, offset: 0x11A60, size: 0x8, addend: 0x0, symName: __ZNSt3__123__dispatch_copy_or_moveB7v160006INS_17_ClassicAlgPolicyENS_11__move_loopIS1_EENS_14__move_trivialENS_16reverse_iteratorIPiEES7_S7_EENS_4pairIT2_T4_EES9_T3_SA_, symObjAddr: 0xE680, symBinAddr: 0x100012340, symSize: 0x64 }
  - { offsetInCU: 0x11ADE, offset: 0x11ADE, size: 0x8, addend: 0x0, symName: __ZNSt3__121__unwrap_and_dispatchB7v160006INS_10__overloadINS_11__move_loopINS_17_ClassicAlgPolicyEEENS_14__move_trivialEEENS_16reverse_iteratorIPiEES9_S9_Li0EEENS_4pairIT0_T2_EESB_T1_SC_, symObjAddr: 0xE6E4, symBinAddr: 0x1000123A4, symSize: 0x12C }
  - { offsetInCU: 0x11B6E, offset: 0x11B6E, size: 0x8, addend: 0x0, symName: __ZNSt3__114__unwrap_rangeB7v160006INS_16reverse_iteratorIPiEES3_EENS_4pairIT0_S5_EET_S7_, symObjAddr: 0xE810, symBinAddr: 0x1000124D0, symSize: 0x84 }
  - { offsetInCU: 0x11CE9, offset: 0x11CE9, size: 0x8, addend: 0x0, symName: __ZNSt3__113__unwrap_iterB7v160006INS_16reverse_iteratorIPiEENS_18__unwrap_iter_implIS3_Lb0EEELi0EEEDTclsrT0_8__unwrapclsr3stdE7declvalIT_EEEES7_, symObjAddr: 0xE934, symBinAddr: 0x1000125F4, symSize: 0x44 }
  - { offsetInCU: 0x11D2D, offset: 0x11D2D, size: 0x8, addend: 0x0, symName: __ZNSt3__19make_pairB7v160006INS_16reverse_iteratorIPiEES3_EENS_4pairINS_18__unwrap_ref_decayIT_E4typeENS5_IT0_E4typeEEEOS6_OS9_, symObjAddr: 0xE978, symBinAddr: 0x100012638, symSize: 0x38 }
  - { offsetInCU: 0x11D7C, offset: 0x11D7C, size: 0x8, addend: 0x0, symName: __ZNSt3__114__rewrap_rangeB7v160006INS_16reverse_iteratorIPiEES3_EET_S4_T0_, symObjAddr: 0xE9B0, symBinAddr: 0x100012670, symSize: 0x5C }
  - { offsetInCU: 0x11DC8, offset: 0x11DC8, size: 0x8, addend: 0x0, symName: __ZNSt3__113__rewrap_iterB7v160006INS_16reverse_iteratorIPiEES3_NS_18__unwrap_iter_implIS3_Lb0EEEEET_S6_T0_, symObjAddr: 0xEA0C, symBinAddr: 0x1000126CC, symSize: 0x74 }
  - { offsetInCU: 0x124C7, offset: 0x124C7, size: 0x8, addend: 0x0, symName: __ZSt28__throw_bad_array_new_lengthB7v160006v, symObjAddr: 0x33C8, symBinAddr: 0x100007088, symSize: 0x34 }
  - { offsetInCU: 0x126F2, offset: 0x126F2, size: 0x8, addend: 0x0, symName: _error, symObjAddr: 0x76438, symBinAddr: 0x100018018, symSize: 0x0 }
  - { offsetInCU: 0x13081, offset: 0x13081, size: 0x8, addend: 0x0, symName: __ZNSt3__16vectorINS_4pairIiiEENS_9allocatorIS2_EEE26__swap_out_circular_bufferERNS_14__split_bufferIS2_RS4_EE, symObjAddr: 0xB094, symBinAddr: 0x10000ED54, symSize: 0x118 }
  - { offsetInCU: 0x133D6, offset: 0x133D6, size: 0x8, addend: 0x0, symName: __ZNSt3__16vectorIiNS_9allocatorIiEEE26__swap_out_circular_bufferERNS_14__split_bufferIiRS2_EE, symObjAddr: 0xE180, symBinAddr: 0x100011E40, symSize: 0x118 }
  - { offsetInCU: 0x1563B, offset: 0x1563B, size: 0x8, addend: 0x0, symName: __ZNSt3__16vectorIiNS_9allocatorIiEEEC1B7v160006Ev, symObjAddr: 0x0, symBinAddr: 0x100003CC0, symSize: 0x2C }
  - { offsetInCU: 0x15665, offset: 0x15665, size: 0x8, addend: 0x0, symName: __ZNSt3__16vectorIiNS_9allocatorIiEEED1B7v160006Ev, symObjAddr: 0x2C, symBinAddr: 0x100003CEC, symSize: 0x2C }
  - { offsetInCU: 0x1568F, offset: 0x1568F, size: 0x8, addend: 0x0, symName: __ZNSt3__16vectorIiNS_9allocatorIiEEEC1B7v160006ESt16initializer_listIiE, symObjAddr: 0x58, symBinAddr: 0x100003D18, symSize: 0x3C }
  - { offsetInCU: 0x156C9, offset: 0x156C9, size: 0x8, addend: 0x0, symName: __Z20get_possible_actionsNSt3__16vectorIiNS_9allocatorIiEEEE, symObjAddr: 0x94, symBinAddr: 0x100003D54, symSize: 0x224 }
  - { offsetInCU: 0x15789, offset: 0x15789, size: 0x8, addend: 0x0, symName: __ZNSt3__16vectorINS_4pairIiiEENS_9allocatorIS2_EEEC1B7v160006Ev, symObjAddr: 0x2B8, symBinAddr: 0x100003F78, symSize: 0x2C }
  - { offsetInCU: 0x157B3, offset: 0x157B3, size: 0x8, addend: 0x0, symName: __ZNSt3__16vectorIiNS_9allocatorIiEEE5beginB7v160006Ev, symObjAddr: 0x2E4, symBinAddr: 0x100003FA4, symSize: 0x30 }
  - { offsetInCU: 0x157DB, offset: 0x157DB, size: 0x8, addend: 0x0, symName: __ZNSt3__16vectorIiNS_9allocatorIiEEE3endB7v160006Ev, symObjAddr: 0x314, symBinAddr: 0x100003FD4, symSize: 0x30 }
  - { offsetInCU: 0x15803, offset: 0x15803, size: 0x8, addend: 0x0, symName: __ZNKSt3__111__wrap_iterIPiEdeB7v160006Ev, symObjAddr: 0x378, symBinAddr: 0x100004038, symSize: 0x18 }
  - { offsetInCU: 0x15829, offset: 0x15829, size: 0x8, addend: 0x0, symName: __ZNSt3__16vectorIiNS_9allocatorIiEEEixB7v160006Em, symObjAddr: 0x390, symBinAddr: 0x100004050, symSize: 0x24 }
  - { offsetInCU: 0x15860, offset: 0x15860, size: 0x8, addend: 0x0, symName: __ZNSt3__16vectorINS_4pairIiiEENS_9allocatorIS2_EEE9push_backB7v160006EOS2_, symObjAddr: 0x3B4, symBinAddr: 0x100004074, symSize: 0x6C }
  - { offsetInCU: 0x15897, offset: 0x15897, size: 0x8, addend: 0x0, symName: __ZNSt3__14pairIiiEC1B7v160006IRiS3_LPv0EEEOT_OT0_, symObjAddr: 0x420, symBinAddr: 0x1000040E0, symSize: 0x3C }
  - { offsetInCU: 0x158F5, offset: 0x158F5, size: 0x8, addend: 0x0, symName: __ZNSt3__111__wrap_iterIPiEppB7v160006Ev, symObjAddr: 0x45C, symBinAddr: 0x10000411C, symSize: 0x20 }
  - { offsetInCU: 0x1591B, offset: 0x1591B, size: 0x8, addend: 0x0, symName: __ZNSt3__16vectorINS_4pairIiiEENS_9allocatorIS2_EEED1B7v160006Ev, symObjAddr: 0x47C, symBinAddr: 0x10000413C, symSize: 0x2C }
  - { offsetInCU: 0x15944, offset: 0x15944, size: 0x8, addend: 0x0, symName: __Z12apply_actionNSt3__16vectorIiNS_9allocatorIiEEEENS_4pairIiiEE, symObjAddr: 0x4A8, symBinAddr: 0x100004168, symSize: 0x50 }
  - { offsetInCU: 0x1597B, offset: 0x1597B, size: 0x8, addend: 0x0, symName: __Z7is_goalNSt3__16vectorIiNS_9allocatorIiEEEE, symObjAddr: 0x534, symBinAddr: 0x1000041F4, symSize: 0x164 }
  - { offsetInCU: 0x159C5, offset: 0x159C5, size: 0x8, addend: 0x0, symName: __ZNKSt3__16vectorIiNS_9allocatorIiEEE4sizeB7v160006Ev, symObjAddr: 0x698, symBinAddr: 0x100004358, symSize: 0x28 }
  - { offsetInCU: 0x159EA, offset: 0x159EA, size: 0x8, addend: 0x0, symName: __Z5solveNSt3__16vectorIiNS_9allocatorIiEEEE, symObjAddr: 0x6C0, symBinAddr: 0x100004380, symSize: 0x640 }
  - { offsetInCU: 0x15AC3, offset: 0x15AC3, size: 0x8, addend: 0x0, symName: __ZNSt3__16vectorIiNS_9allocatorIiEEEC1ERKS3_, symObjAddr: 0xD00, symBinAddr: 0x1000049C0, symSize: 0x34 }
  - { offsetInCU: 0x15B04, offset: 0x15B04, size: 0x8, addend: 0x0, symName: __ZNSt3__14pairIiiEC1B7v160006IiiLPv0EEEOT_OT0_, symObjAddr: 0xD34, symBinAddr: 0x1000049F4, symSize: 0x3C }
  - { offsetInCU: 0x15B62, offset: 0x15B62, size: 0x8, addend: 0x0, symName: __ZN4NodeC1EPS_NSt3__16vectorIiNS1_9allocatorIiEEEENS1_4pairIiiEE, symObjAddr: 0xD70, symBinAddr: 0x100004A30, symSize: 0x44 }
  - { offsetInCU: 0x15C87, offset: 0x15C87, size: 0x8, addend: 0x0, symName: __ZN8FrontierC1Ev, symObjAddr: 0xDB4, symBinAddr: 0x100004A74, symSize: 0x2C }
  - { offsetInCU: 0x15CB3, offset: 0x15CB3, size: 0x8, addend: 0x0, symName: __ZN8Frontier3addE4Node, symObjAddr: 0xDE0, symBinAddr: 0x100004AA0, symSize: 0x2C }
  - { offsetInCU: 0x15CE8, offset: 0x15CE8, size: 0x8, addend: 0x0, symName: __ZN4NodeC1ERKS_, symObjAddr: 0xE0C, symBinAddr: 0x100004ACC, symSize: 0x34 }
  - { offsetInCU: 0x15D1D, offset: 0x15D1D, size: 0x8, addend: 0x0, symName: __ZN4NodeD1Ev, symObjAddr: 0xE40, symBinAddr: 0x100004B00, symSize: 0x2C }
  - { offsetInCU: 0x15E75, offset: 0x15E75, size: 0x8, addend: 0x0, symName: __ZNSt3__13setINS_6vectorIiNS_9allocatorIiEEEENS_4lessIS4_EENS2_IS4_EEEC1B7v160006Ev, symObjAddr: 0xE6C, symBinAddr: 0x100004B2C, symSize: 0x2C }
  - { offsetInCU: 0x15E9F, offset: 0x15E9F, size: 0x8, addend: 0x0, symName: __ZN8Frontier5emptyEv, symObjAddr: 0xE98, symBinAddr: 0x100004B58, symSize: 0x28 }
  - { offsetInCU: 0x15EC5, offset: 0x15EC5, size: 0x8, addend: 0x0, symName: __ZNSt3__113basic_ostreamIcNS_11char_traitsIcEEElsB7v160006EPFRS3_S4_E, symObjAddr: 0xF08, symBinAddr: 0x100004BC8, symSize: 0x2C }
  - { offsetInCU: 0x15EF9, offset: 0x15EF9, size: 0x8, addend: 0x0, symName: __ZN8Frontier6removeEv, symObjAddr: 0xF8C, symBinAddr: 0x100004C4C, symSize: 0xF8 }
  - { offsetInCU: 0x15F2E, offset: 0x15F2E, size: 0x8, addend: 0x0, symName: __ZN4Node9get_stateEv, symObjAddr: 0x1084, symBinAddr: 0x100004D44, symSize: 0x38 }
  - { offsetInCU: 0x15F54, offset: 0x15F54, size: 0x8, addend: 0x0, symName: __ZNSt3__13setINS_6vectorIiNS_9allocatorIiEEEENS_4lessIS4_EENS2_IS4_EEE4findB7v160006ERKS4_, symObjAddr: 0x10F0, symBinAddr: 0x100004DB0, symSize: 0x40 }
  - { offsetInCU: 0x15F89, offset: 0x15F89, size: 0x8, addend: 0x0, symName: __ZNSt3__13setINS_6vectorIiNS_9allocatorIiEEEENS_4lessIS4_EENS2_IS4_EEE3endB7v160006Ev, symObjAddr: 0x1130, symBinAddr: 0x100004DF0, symSize: 0x38 }
  - { offsetInCU: 0x15FAF, offset: 0x15FAF, size: 0x8, addend: 0x0, symName: __ZNSt3__13setINS_6vectorIiNS_9allocatorIiEEEENS_4lessIS4_EENS2_IS4_EEE6insertB7v160006EOS4_, symObjAddr: 0x1168, symBinAddr: 0x100004E28, symSize: 0x4C }
  - { offsetInCU: 0x15FE4, offset: 0x15FE4, size: 0x8, addend: 0x0, symName: __ZNSt3__16vectorINS_4pairIiiEENS_9allocatorIS2_EEE5beginB7v160006Ev, symObjAddr: 0x11B4, symBinAddr: 0x100004E74, symSize: 0x30 }
  - { offsetInCU: 0x1600C, offset: 0x1600C, size: 0x8, addend: 0x0, symName: __ZNSt3__16vectorINS_4pairIiiEENS_9allocatorIS2_EEE3endB7v160006Ev, symObjAddr: 0x11E4, symBinAddr: 0x100004EA4, symSize: 0x30 }
  - { offsetInCU: 0x16034, offset: 0x16034, size: 0x8, addend: 0x0, symName: __ZNKSt3__111__wrap_iterIPNS_4pairIiiEEEdeB7v160006Ev, symObjAddr: 0x1248, symBinAddr: 0x100004F08, symSize: 0x18 }
  - { offsetInCU: 0x1605A, offset: 0x1605A, size: 0x8, addend: 0x0, symName: __ZN8Frontier8containsE4Node, symObjAddr: 0x1260, symBinAddr: 0x100004F20, symSize: 0x11C }
  - { offsetInCU: 0x1609E, offset: 0x1609E, size: 0x8, addend: 0x0, symName: __ZNSt3__111__wrap_iterIPNS_4pairIiiEEEppB7v160006Ev, symObjAddr: 0x13AC, symBinAddr: 0x10000506C, symSize: 0x20 }
  - { offsetInCU: 0x160C4, offset: 0x160C4, size: 0x8, addend: 0x0, symName: __ZNSt3__13setINS_6vectorIiNS_9allocatorIiEEEENS_4lessIS4_EENS2_IS4_EEED1B7v160006Ev, symObjAddr: 0x13CC, symBinAddr: 0x10000508C, symSize: 0x2C }
  - { offsetInCU: 0x160EE, offset: 0x160EE, size: 0x8, addend: 0x0, symName: __ZN8FrontierD1Ev, symObjAddr: 0x13F8, symBinAddr: 0x1000050B8, symSize: 0x2C }
  - { offsetInCU: 0x1611A, offset: 0x1611A, size: 0x8, addend: 0x0, symName: _main, symObjAddr: 0x1424, symBinAddr: 0x1000050E4, symSize: 0x290 }
  - { offsetInCU: 0x161AC, offset: 0x161AC, size: 0x8, addend: 0x0, symName: __ZNSt3__16vectorIiNS_9allocatorIiEEE9push_backB7v160006ERKi, symObjAddr: 0x16B4, symBinAddr: 0x100005374, symSize: 0x6C }
  - { offsetInCU: 0x161E3, offset: 0x161E3, size: 0x8, addend: 0x0, symName: __ZNKSt3__111__wrap_iterIPiE4baseB7v160006Ev, symObjAddr: 0x1768, symBinAddr: 0x100005428, symSize: 0x18 }
  - { offsetInCU: 0x16209, offset: 0x16209, size: 0x8, addend: 0x0, symName: __ZNSt3__14pairIiiEC2B7v160006IRiS3_LPv0EEEOT_OT0_, symObjAddr: 0x1780, symBinAddr: 0x100005440, symSize: 0x34 }
  - { offsetInCU: 0x16267, offset: 0x16267, size: 0x8, addend: 0x0, symName: __ZNSt3__14pairIiiEC2B7v160006IiiLPv0EEEOT_OT0_, symObjAddr: 0x17B4, symBinAddr: 0x100005474, symSize: 0x34 }
  - { offsetInCU: 0x162C5, offset: 0x162C5, size: 0x8, addend: 0x0, symName: __ZN4NodeC2EPS_NSt3__16vectorIiNS1_9allocatorIiEEEENS1_4pairIiiEE, symObjAddr: 0x17E8, symBinAddr: 0x1000054A8, symSize: 0xC8 }
  - { offsetInCU: 0x1631A, offset: 0x1631A, size: 0x8, addend: 0x0, symName: __ZNSt3__14pairIiiEC1B7v160006ILb1ELPv0EEEv, symObjAddr: 0x18B0, symBinAddr: 0x100005570, symSize: 0x2C }
  - { offsetInCU: 0x16354, offset: 0x16354, size: 0x8, addend: 0x0, symName: __ZNSt3__16vectorIiNS_9allocatorIiEEEaSB7v160006ERKS3_, symObjAddr: 0x18DC, symBinAddr: 0x10000559C, symSize: 0x68 }
  - { offsetInCU: 0x1638B, offset: 0x1638B, size: 0x8, addend: 0x0, symName: __ZNSt3__14pairIiiEaSB7v160006ERKS1_, symObjAddr: 0x1944, symBinAddr: 0x100005604, symSize: 0x30 }
  - { offsetInCU: 0x163C0, offset: 0x163C0, size: 0x8, addend: 0x0, symName: __ZNSt3__14pairIiiEC2B7v160006ILb1ELPv0EEEv, symObjAddr: 0x1974, symBinAddr: 0x100005634, symSize: 0x1C }
  - { offsetInCU: 0x163FA, offset: 0x163FA, size: 0x8, addend: 0x0, symName: __ZNSt3__16vectorIiNS_9allocatorIiEEE19__copy_assign_allocB7v160006ERKS3_, symObjAddr: 0x1990, symBinAddr: 0x100005650, symSize: 0x2C }
  - { offsetInCU: 0x1642F, offset: 0x1642F, size: 0x8, addend: 0x0, symName: __ZNSt3__16vectorIiNS_9allocatorIiEEE6assignIPiLi0EEEvT_S6_, symObjAddr: 0x19BC, symBinAddr: 0x10000567C, symSize: 0x17C }
  - { offsetInCU: 0x164CE, offset: 0x164CE, size: 0x8, addend: 0x0, symName: __ZNSt3__16vectorIiNS_9allocatorIiEEE19__copy_assign_allocB7v160006ERKS3_NS_17integral_constantIbLb0EEE, symObjAddr: 0x1B38, symBinAddr: 0x1000057F8, symSize: 0x14 }
  - { offsetInCU: 0x1650A, offset: 0x1650A, size: 0x8, addend: 0x0, symName: __ZNKSt3__16vectorIiNS_9allocatorIiEEE8capacityB7v160006Ev, symObjAddr: 0x1B78, symBinAddr: 0x100005838, symSize: 0x40 }
  - { offsetInCU: 0x16530, offset: 0x16530, size: 0x8, addend: 0x0, symName: __ZNSt3__16vectorIiNS_9allocatorIiEEE18__construct_at_endIPiLi0EEEvT_S6_m, symObjAddr: 0x1C48, symBinAddr: 0x100005908, symSize: 0x8C }
  - { offsetInCU: 0x165A3, offset: 0x165A3, size: 0x8, addend: 0x0, symName: __ZNSt3__16vectorIiNS_9allocatorIiEEE17__destruct_at_endB7v160006EPi, symObjAddr: 0x1CD4, symBinAddr: 0x100005994, symSize: 0x60 }
  - { offsetInCU: 0x165E7, offset: 0x165E7, size: 0x8, addend: 0x0, symName: __ZNSt3__16vectorIiNS_9allocatorIiEEE13__vdeallocateEv, symObjAddr: 0x1D34, symBinAddr: 0x1000059F4, symSize: 0x8C }
  - { offsetInCU: 0x1660F, offset: 0x1660F, size: 0x8, addend: 0x0, symName: __ZNSt3__16vectorIiNS_9allocatorIiEEE11__vallocateB7v160006Em, symObjAddr: 0x1DC0, symBinAddr: 0x100005A80, symSize: 0xAC }
  - { offsetInCU: 0x16653, offset: 0x16653, size: 0x8, addend: 0x0, symName: __ZNKSt3__16vectorIiNS_9allocatorIiEEE11__recommendB7v160006Em, symObjAddr: 0x1E6C, symBinAddr: 0x100005B2C, symSize: 0xB4 }
  - { offsetInCU: 0x166A8, offset: 0x166A8, size: 0x8, addend: 0x0, symName: __ZNKSt3__16vectorIiNS_9allocatorIiEEE9__end_capB7v160006Ev, symObjAddr: 0x1F58, symBinAddr: 0x100005C18, symSize: 0x28 }
  - { offsetInCU: 0x166CE, offset: 0x166CE, size: 0x8, addend: 0x0, symName: __ZNKSt3__117__compressed_pairIPiNS_9allocatorIiEEE5firstB7v160006Ev, symObjAddr: 0x1F80, symBinAddr: 0x100005C40, symSize: 0x24 }
  - { offsetInCU: 0x166F4, offset: 0x166F4, size: 0x8, addend: 0x0, symName: __ZNKSt3__122__compressed_pair_elemIPiLi0ELb0EE5__getB7v160006Ev, symObjAddr: 0x1FA4, symBinAddr: 0x100005C64, symSize: 0x14 }
  - { offsetInCU: 0x1673E, offset: 0x1673E, size: 0x8, addend: 0x0, symName: __ZNKSt3__114__copy_trivialclB7v160006IiiLi0EEENS_4pairIPT_PT0_EES4_S4_S6_, symObjAddr: 0x2190, symBinAddr: 0x100005E50, symSize: 0x48 }
  - { offsetInCU: 0x167AC, offset: 0x167AC, size: 0x8, addend: 0x0, symName: __ZNSt3__14pairIPiS1_EC1B7v160006IRS1_S1_LPv0EEEOT_OT0_, symObjAddr: 0x2358, symBinAddr: 0x100006018, symSize: 0x3C }
  - { offsetInCU: 0x1680A, offset: 0x1680A, size: 0x8, addend: 0x0, symName: __ZNSt3__14pairIPiS1_EC2B7v160006IRS1_S1_LPv0EEEOT_OT0_, symObjAddr: 0x2394, symBinAddr: 0x100006054, symSize: 0x34 }
  - { offsetInCU: 0x16868, offset: 0x16868, size: 0x8, addend: 0x0, symName: __ZNSt3__118__unwrap_iter_implIPiLb1EE8__unwrapB7v160006ES1_, symObjAddr: 0x23C8, symBinAddr: 0x100006088, symSize: 0x24 }
  - { offsetInCU: 0x1688B, offset: 0x1688B, size: 0x8, addend: 0x0, symName: __ZNSt3__14pairIPiS1_EC1B7v160006IS1_S1_LPv0EEEOT_OT0_, symObjAddr: 0x2400, symBinAddr: 0x1000060C0, symSize: 0x3C }
  - { offsetInCU: 0x168E9, offset: 0x168E9, size: 0x8, addend: 0x0, symName: __ZNSt3__14pairIPiS1_EC2B7v160006IS1_S1_LPv0EEEOT_OT0_, symObjAddr: 0x243C, symBinAddr: 0x1000060FC, symSize: 0x34 }
  - { offsetInCU: 0x16947, offset: 0x16947, size: 0x8, addend: 0x0, symName: __ZNSt3__118__unwrap_iter_implIPiLb1EE8__rewrapB7v160006ES1_S1_, symObjAddr: 0x2470, symBinAddr: 0x100006130, symSize: 0x50 }
  - { offsetInCU: 0x16991, offset: 0x16991, size: 0x8, addend: 0x0, symName: __ZNSt3__16vectorIiNS_9allocatorIiEEE21_ConstructTransactionC1B7v160006ERS3_m, symObjAddr: 0x24CC, symBinAddr: 0x10000618C, symSize: 0x3C }
  - { offsetInCU: 0x169D9, offset: 0x169D9, size: 0x8, addend: 0x0, symName: __ZNSt3__16vectorIiNS_9allocatorIiEEE7__allocB7v160006Ev, symObjAddr: 0x25FC, symBinAddr: 0x1000062BC, symSize: 0x28 }
  - { offsetInCU: 0x169FF, offset: 0x169FF, size: 0x8, addend: 0x0, symName: __ZNSt3__16vectorIiNS_9allocatorIiEEE21_ConstructTransactionD1B7v160006Ev, symObjAddr: 0x2624, symBinAddr: 0x1000062E4, symSize: 0x2C }
  - { offsetInCU: 0x16A29, offset: 0x16A29, size: 0x8, addend: 0x0, symName: __ZNSt3__16vectorIiNS_9allocatorIiEEE21_ConstructTransactionC2B7v160006ERS3_m, symObjAddr: 0x2650, symBinAddr: 0x100006310, symSize: 0x44 }
  - { offsetInCU: 0x16A71, offset: 0x16A71, size: 0x8, addend: 0x0, symName: __ZNSt3__129_AllocatorDestroyRangeReverseINS_9allocatorIiEEPiEC1B7v160006ERS2_RS3_S6_, symObjAddr: 0x26E0, symBinAddr: 0x1000063A0, symSize: 0x44 }
  - { offsetInCU: 0x16AC8, offset: 0x16AC8, size: 0x8, addend: 0x0, symName: __ZNSt3__116allocator_traitsINS_9allocatorIiEEE9constructB7v160006IiJRiEvEEvRS2_PT_DpOT0_, symObjAddr: 0x2724, symBinAddr: 0x1000063E4, symSize: 0x34 }
  - { offsetInCU: 0x16B1F, offset: 0x16B1F, size: 0x8, addend: 0x0, symName: __ZNSt3__128__exception_guard_exceptionsINS_29_AllocatorDestroyRangeReverseINS_9allocatorIiEEPiEEE10__completeB7v160006Ev, symObjAddr: 0x2758, symBinAddr: 0x100006418, symSize: 0x1C }
  - { offsetInCU: 0x16B45, offset: 0x16B45, size: 0x8, addend: 0x0, symName: __ZNSt3__128__exception_guard_exceptionsINS_29_AllocatorDestroyRangeReverseINS_9allocatorIiEEPiEEED1B7v160006Ev, symObjAddr: 0x2774, symBinAddr: 0x100006434, symSize: 0x2C }
  - { offsetInCU: 0x16B6F, offset: 0x16B6F, size: 0x8, addend: 0x0, symName: __ZNSt3__128__exception_guard_exceptionsINS_29_AllocatorDestroyRangeReverseINS_9allocatorIiEEPiEEEC1B7v160006ES5_, symObjAddr: 0x27A0, symBinAddr: 0x100006460, symSize: 0x34 }
  - { offsetInCU: 0x16BA8, offset: 0x16BA8, size: 0x8, addend: 0x0, symName: __ZNSt3__128__exception_guard_exceptionsINS_29_AllocatorDestroyRangeReverseINS_9allocatorIiEEPiEEEC2B7v160006ES5_, symObjAddr: 0x27D4, symBinAddr: 0x100006494, symSize: 0x30 }
  - { offsetInCU: 0x16BE1, offset: 0x16BE1, size: 0x8, addend: 0x0, symName: __ZNSt3__129_AllocatorDestroyRangeReverseINS_9allocatorIiEEPiEC2B7v160006ERS2_RS3_S6_, symObjAddr: 0x2804, symBinAddr: 0x1000064C4, symSize: 0x38 }
  - { offsetInCU: 0x16C38, offset: 0x16C38, size: 0x8, addend: 0x0, symName: __ZNSt3__19allocatorIiE9constructB7v160006IiJRiEEEvPT_DpOT0_, symObjAddr: 0x283C, symBinAddr: 0x1000064FC, symSize: 0x28 }
  - { offsetInCU: 0x16C8E, offset: 0x16C8E, size: 0x8, addend: 0x0, symName: __ZNSt3__128__exception_guard_exceptionsINS_29_AllocatorDestroyRangeReverseINS_9allocatorIiEEPiEEED2B7v160006Ev, symObjAddr: 0x2864, symBinAddr: 0x100006524, symSize: 0x50 }
  - { offsetInCU: 0x16CB8, offset: 0x16CB8, size: 0x8, addend: 0x0, symName: __ZNKSt3__129_AllocatorDestroyRangeReverseINS_9allocatorIiEEPiEclB7v160006Ev, symObjAddr: 0x28B4, symBinAddr: 0x100006574, symSize: 0x68 }
  - { offsetInCU: 0x16CDE, offset: 0x16CDE, size: 0x8, addend: 0x0, symName: __ZNSt3__116reverse_iteratorIPiEC1B7v160006ES1_, symObjAddr: 0x298C, symBinAddr: 0x10000664C, symSize: 0x34 }
  - { offsetInCU: 0x16D16, offset: 0x16D16, size: 0x8, addend: 0x0, symName: __ZNSt3__116allocator_traitsINS_9allocatorIiEEE7destroyB7v160006IivEEvRS2_PT_, symObjAddr: 0x2A08, symBinAddr: 0x1000066C8, symSize: 0x2C }
  - { offsetInCU: 0x16D53, offset: 0x16D53, size: 0x8, addend: 0x0, symName: __ZNSt3__116reverse_iteratorIPiEppB7v160006Ev, symObjAddr: 0x2A58, symBinAddr: 0x100006718, symSize: 0x20 }
  - { offsetInCU: 0x16D79, offset: 0x16D79, size: 0x8, addend: 0x0, symName: __ZNKSt3__116reverse_iteratorIPiE4baseB7v160006Ev, symObjAddr: 0x2A78, symBinAddr: 0x100006738, symSize: 0x18 }
  - { offsetInCU: 0x16D9F, offset: 0x16D9F, size: 0x8, addend: 0x0, symName: __ZNSt3__19allocatorIiE7destroyB7v160006EPi, symObjAddr: 0x2A90, symBinAddr: 0x100006750, symSize: 0x14 }
  - { offsetInCU: 0x16DD8, offset: 0x16DD8, size: 0x8, addend: 0x0, symName: __ZNSt3__119__to_address_helperINS_16reverse_iteratorIPiEEvE6__callB7v160006ERKS3_, symObjAddr: 0x2AA4, symBinAddr: 0x100006764, symSize: 0x38 }
  - { offsetInCU: 0x16DFB, offset: 0x16DFB, size: 0x8, addend: 0x0, symName: __ZNKSt3__116reverse_iteratorIPiEptB7v160006Ev, symObjAddr: 0x2ADC, symBinAddr: 0x10000679C, symSize: 0x24 }
  - { offsetInCU: 0x16E21, offset: 0x16E21, size: 0x8, addend: 0x0, symName: __ZNKSt3__116reverse_iteratorIPiEdeB7v160006Ev, symObjAddr: 0x2B00, symBinAddr: 0x1000067C0, symSize: 0x28 }
  - { offsetInCU: 0x16E55, offset: 0x16E55, size: 0x8, addend: 0x0, symName: __ZNSt3__116reverse_iteratorIPiEC2B7v160006ES1_, symObjAddr: 0x2B28, symBinAddr: 0x1000067E8, symSize: 0x28 }
  - { offsetInCU: 0x16E8D, offset: 0x16E8D, size: 0x8, addend: 0x0, symName: __ZNSt3__117__compressed_pairIPiNS_9allocatorIiEEE6secondB7v160006Ev, symObjAddr: 0x2B50, symBinAddr: 0x100006810, symSize: 0x24 }
  - { offsetInCU: 0x16EB3, offset: 0x16EB3, size: 0x8, addend: 0x0, symName: __ZNSt3__122__compressed_pair_elemINS_9allocatorIiEELi1ELb1EE5__getB7v160006Ev, symObjAddr: 0x2B74, symBinAddr: 0x100006834, symSize: 0x14 }
  - { offsetInCU: 0x16ED9, offset: 0x16ED9, size: 0x8, addend: 0x0, symName: __ZNSt3__16vectorIiNS_9allocatorIiEEE21_ConstructTransactionD2B7v160006Ev, symObjAddr: 0x2B88, symBinAddr: 0x100006848, symSize: 0x20 }
  - { offsetInCU: 0x16F03, offset: 0x16F03, size: 0x8, addend: 0x0, symName: __ZNSt3__16vectorIiNS_9allocatorIiEEE27__invalidate_iterators_pastB7v160006EPi, symObjAddr: 0x2BA8, symBinAddr: 0x100006868, symSize: 0x14 }
  - { offsetInCU: 0x16F3A, offset: 0x16F3A, size: 0x8, addend: 0x0, symName: __ZNSt3__16vectorIiNS_9allocatorIiEEE22__base_destruct_at_endB7v160006EPi, symObjAddr: 0x2BBC, symBinAddr: 0x10000687C, symSize: 0x8C }
  - { offsetInCU: 0x16F7E, offset: 0x16F7E, size: 0x8, addend: 0x0, symName: __ZNKSt3__16vectorIiNS_9allocatorIiEEE17__annotate_shrinkB7v160006Em, symObjAddr: 0x2C48, symBinAddr: 0x100006908, symSize: 0xB4 }
  - { offsetInCU: 0x16FB3, offset: 0x16FB3, size: 0x8, addend: 0x0, symName: __ZNKSt3__16vectorIiNS_9allocatorIiEEE31__annotate_contiguous_containerB7v160006EPKvS5_S5_S5_, symObjAddr: 0x2CFC, symBinAddr: 0x1000069BC, symSize: 0x20 }
  - { offsetInCU: 0x17005, offset: 0x17005, size: 0x8, addend: 0x0, symName: __ZNKSt3__16vectorIiNS_9allocatorIiEEE4dataB7v160006Ev, symObjAddr: 0x2D1C, symBinAddr: 0x1000069DC, symSize: 0x28 }
  - { offsetInCU: 0x1702B, offset: 0x1702B, size: 0x8, addend: 0x0, symName: __ZNSt3__16vectorIiNS_9allocatorIiEEE5clearB7v160006Ev, symObjAddr: 0x2D44, symBinAddr: 0x100006A04, symSize: 0x54 }
  - { offsetInCU: 0x17060, offset: 0x17060, size: 0x8, addend: 0x0, symName: __ZNSt3__116allocator_traitsINS_9allocatorIiEEE10deallocateB7v160006ERS2_Pim, symObjAddr: 0x2D98, symBinAddr: 0x100006A58, symSize: 0x34 }
  - { offsetInCU: 0x170A2, offset: 0x170A2, size: 0x8, addend: 0x0, symName: __ZNSt3__16vectorIiNS_9allocatorIiEEE9__end_capB7v160006Ev, symObjAddr: 0x2DCC, symBinAddr: 0x100006A8C, symSize: 0x28 }
  - { offsetInCU: 0x170C8, offset: 0x170C8, size: 0x8, addend: 0x0, symName: __ZNSt3__16vectorIiNS_9allocatorIiEEE7__clearB7v160006Ev, symObjAddr: 0x2DF4, symBinAddr: 0x100006AB4, symSize: 0x28 }
  - { offsetInCU: 0x170EE, offset: 0x170EE, size: 0x8, addend: 0x0, symName: __ZNSt3__19allocatorIiE10deallocateB7v160006EPim, symObjAddr: 0x2E1C, symBinAddr: 0x100006ADC, symSize: 0x40 }
  - { offsetInCU: 0x17130, offset: 0x17130, size: 0x8, addend: 0x0, symName: __ZNSt3__117__compressed_pairIPiNS_9allocatorIiEEE5firstB7v160006Ev, symObjAddr: 0x2F84, symBinAddr: 0x100006C44, symSize: 0x24 }
  - { offsetInCU: 0x17156, offset: 0x17156, size: 0x8, addend: 0x0, symName: __ZNSt3__122__compressed_pair_elemIPiLi0ELb0EE5__getB7v160006Ev, symObjAddr: 0x2FA8, symBinAddr: 0x100006C68, symSize: 0x14 }
  - { offsetInCU: 0x1717C, offset: 0x1717C, size: 0x8, addend: 0x0, symName: __ZNKSt3__16vectorIiNS_9allocatorIiEEE8max_sizeEv, symObjAddr: 0x2FBC, symBinAddr: 0x100006C7C, symSize: 0x60 }
  - { offsetInCU: 0x171A4, offset: 0x171A4, size: 0x8, addend: 0x0, symName: __ZNKSt3__16vectorIiNS_9allocatorIiEEE20__throw_length_errorB7v160006Ev, symObjAddr: 0x301C, symBinAddr: 0x100006CDC, symSize: 0x1C }
  - { offsetInCU: 0x171CA, offset: 0x171CA, size: 0x8, addend: 0x0, symName: __ZNKSt3__16vectorIiNS_9allocatorIiEEE14__annotate_newB7v160006Em, symObjAddr: 0x3078, symBinAddr: 0x100006D38, symSize: 0xAC }
  - { offsetInCU: 0x17209, offset: 0x17209, size: 0x8, addend: 0x0, symName: __ZNSt3__116allocator_traitsINS_9allocatorIiEEE8max_sizeB7v160006IS2_vEEmRKS2_, symObjAddr: 0x3150, symBinAddr: 0x100006E10, symSize: 0x24 }
  - { offsetInCU: 0x17237, offset: 0x17237, size: 0x8, addend: 0x0, symName: __ZNKSt3__16vectorIiNS_9allocatorIiEEE7__allocB7v160006Ev, symObjAddr: 0x3174, symBinAddr: 0x100006E34, symSize: 0x28 }
  - { offsetInCU: 0x1725D, offset: 0x1725D, size: 0x8, addend: 0x0, symName: __ZNSt3__114numeric_limitsIlE3maxB7v160006Ev, symObjAddr: 0x319C, symBinAddr: 0x100006E5C, symSize: 0x14 }
  - { offsetInCU: 0x1727B, offset: 0x1727B, size: 0x8, addend: 0x0, symName: __ZNKSt3__16__lessImmEclB7v160006ERKmS3_, symObjAddr: 0x3204, symBinAddr: 0x100006EC4, symSize: 0x34 }
  - { offsetInCU: 0x172BD, offset: 0x172BD, size: 0x8, addend: 0x0, symName: __ZNKSt3__19allocatorIiE8max_sizeB7v160006Ev, symObjAddr: 0x3238, symBinAddr: 0x100006EF8, symSize: 0x14 }
  - { offsetInCU: 0x172E3, offset: 0x172E3, size: 0x8, addend: 0x0, symName: __ZNKSt3__117__compressed_pairIPiNS_9allocatorIiEEE6secondB7v160006Ev, symObjAddr: 0x324C, symBinAddr: 0x100006F0C, symSize: 0x24 }
  - { offsetInCU: 0x17309, offset: 0x17309, size: 0x8, addend: 0x0, symName: __ZNKSt3__122__compressed_pair_elemINS_9allocatorIiEELi1ELb1EE5__getB7v160006Ev, symObjAddr: 0x3270, symBinAddr: 0x100006F30, symSize: 0x14 }
  - { offsetInCU: 0x1732F, offset: 0x1732F, size: 0x8, addend: 0x0, symName: __ZNSt3__123__libcpp_numeric_limitsIlLb1EE3maxB7v160006Ev, symObjAddr: 0x3284, symBinAddr: 0x100006F44, symSize: 0x8 }
  - { offsetInCU: 0x17343, offset: 0x17343, size: 0x8, addend: 0x0, symName: __ZNSt12length_errorC1B7v160006EPKc, symObjAddr: 0x32F0, symBinAddr: 0x100006FB0, symSize: 0x34 }
  - { offsetInCU: 0x1737B, offset: 0x1737B, size: 0x8, addend: 0x0, symName: __ZNSt12length_errorC2B7v160006EPKc, symObjAddr: 0x3324, symBinAddr: 0x100006FE4, symSize: 0x4C }
  - { offsetInCU: 0x173B3, offset: 0x173B3, size: 0x8, addend: 0x0, symName: __ZNSt3__19allocatorIiE8allocateB7v160006Em, symObjAddr: 0x3370, symBinAddr: 0x100007030, symSize: 0x58 }
  - { offsetInCU: 0x173E7, offset: 0x173E7, size: 0x8, addend: 0x0, symName: __ZN8FrontierC2Ev, symObjAddr: 0x352C, symBinAddr: 0x1000071EC, symSize: 0x2C }
  - { offsetInCU: 0x17413, offset: 0x17413, size: 0x8, addend: 0x0, symName: __ZNSt3__15queueI4NodeNS_5dequeIS1_NS_9allocatorIS1_EEEEEC1B7v160006Ev, symObjAddr: 0x3558, symBinAddr: 0x100007218, symSize: 0x2C }
  - { offsetInCU: 0x1743D, offset: 0x1743D, size: 0x8, addend: 0x0, symName: __ZNSt3__15queueI4NodeNS_5dequeIS1_NS_9allocatorIS1_EEEEEC2B7v160006Ev, symObjAddr: 0x3584, symBinAddr: 0x100007244, symSize: 0x2C }
  - { offsetInCU: 0x17467, offset: 0x17467, size: 0x8, addend: 0x0, symName: __ZNSt3__15dequeI4NodeNS_9allocatorIS1_EEEC1B7v160006Ev, symObjAddr: 0x35B0, symBinAddr: 0x100007270, symSize: 0x2C }
  - { offsetInCU: 0x17491, offset: 0x17491, size: 0x8, addend: 0x0, symName: __ZNSt3__15dequeI4NodeNS_9allocatorIS1_EEEC2B7v160006Ev, symObjAddr: 0x35DC, symBinAddr: 0x10000729C, symSize: 0x50 }
  - { offsetInCU: 0x174BB, offset: 0x174BB, size: 0x8, addend: 0x0, symName: __ZNSt3__114__split_bufferIP4NodeNS_9allocatorIS2_EEEC1Ev, symObjAddr: 0x362C, symBinAddr: 0x1000072EC, symSize: 0x2C }
  - { offsetInCU: 0x174ED, offset: 0x174ED, size: 0x8, addend: 0x0, symName: __ZNSt3__117__compressed_pairImNS_9allocatorI4NodeEEEC1B7v160006IiNS_18__default_init_tagEEEOT_OT0_, symObjAddr: 0x3658, symBinAddr: 0x100007318, symSize: 0x3C }
  - { offsetInCU: 0x17545, offset: 0x17545, size: 0x8, addend: 0x0, symName: __ZNSt3__114__split_bufferIP4NodeNS_9allocatorIS2_EEEC2Ev, symObjAddr: 0x3694, symBinAddr: 0x100007354, symSize: 0x50 }
  - { offsetInCU: 0x17577, offset: 0x17577, size: 0x8, addend: 0x0, symName: __ZNSt3__117__compressed_pairIPP4NodeNS_9allocatorIS2_EEEC1B7v160006IDnNS_18__default_init_tagEEEOT_OT0_, symObjAddr: 0x36E4, symBinAddr: 0x1000073A4, symSize: 0x3C }
  - { offsetInCU: 0x175CF, offset: 0x175CF, size: 0x8, addend: 0x0, symName: __ZNSt3__117__compressed_pairIPP4NodeNS_9allocatorIS2_EEEC2B7v160006IDnNS_18__default_init_tagEEEOT_OT0_, symObjAddr: 0x3720, symBinAddr: 0x1000073E0, symSize: 0x40 }
  - { offsetInCU: 0x17627, offset: 0x17627, size: 0x8, addend: 0x0, symName: __ZNSt3__122__compressed_pair_elemIPP4NodeLi0ELb0EEC2B7v160006IDnvEEOT_, symObjAddr: 0x3760, symBinAddr: 0x100007420, symSize: 0x1C }
  - { offsetInCU: 0x17669, offset: 0x17669, size: 0x8, addend: 0x0, symName: __ZNSt3__122__compressed_pair_elemINS_9allocatorIP4NodeEELi1ELb1EEC2B7v160006ENS_18__default_init_tagE, symObjAddr: 0x377C, symBinAddr: 0x10000743C, symSize: 0x2C }
  - { offsetInCU: 0x1769D, offset: 0x1769D, size: 0x8, addend: 0x0, symName: __ZNSt3__19allocatorIP4NodeEC2B7v160006Ev, symObjAddr: 0x37A8, symBinAddr: 0x100007468, symSize: 0x2C }
  - { offsetInCU: 0x176C7, offset: 0x176C7, size: 0x8, addend: 0x0, symName: __ZNSt3__116__non_trivial_ifILb1ENS_9allocatorIP4NodeEEEC2B7v160006Ev, symObjAddr: 0x37D4, symBinAddr: 0x100007494, symSize: 0x14 }
  - { offsetInCU: 0x176F1, offset: 0x176F1, size: 0x8, addend: 0x0, symName: __ZNSt3__117__compressed_pairImNS_9allocatorI4NodeEEEC2B7v160006IiNS_18__default_init_tagEEEOT_OT0_, symObjAddr: 0x37E8, symBinAddr: 0x1000074A8, symSize: 0x40 }
  - { offsetInCU: 0x17749, offset: 0x17749, size: 0x8, addend: 0x0, symName: __ZNSt3__122__compressed_pair_elemImLi0ELb0EEC2B7v160006IivEEOT_, symObjAddr: 0x3828, symBinAddr: 0x1000074E8, symSize: 0x24 }
  - { offsetInCU: 0x1778B, offset: 0x1778B, size: 0x8, addend: 0x0, symName: __ZNSt3__122__compressed_pair_elemINS_9allocatorI4NodeEELi1ELb1EEC2B7v160006ENS_18__default_init_tagE, symObjAddr: 0x384C, symBinAddr: 0x10000750C, symSize: 0x2C }
  - { offsetInCU: 0x177BF, offset: 0x177BF, size: 0x8, addend: 0x0, symName: __ZNSt3__19allocatorI4NodeEC2B7v160006Ev, symObjAddr: 0x3878, symBinAddr: 0x100007538, symSize: 0x2C }
  - { offsetInCU: 0x177E9, offset: 0x177E9, size: 0x8, addend: 0x0, symName: __ZNSt3__116__non_trivial_ifILb1ENS_9allocatorI4NodeEEEC2B7v160006Ev, symObjAddr: 0x38A4, symBinAddr: 0x100007564, symSize: 0x14 }
  - { offsetInCU: 0x17813, offset: 0x17813, size: 0x8, addend: 0x0, symName: __ZNSt3__15queueI4NodeNS_5dequeIS1_NS_9allocatorIS1_EEEEE4pushB7v160006ERKS1_, symObjAddr: 0x38B8, symBinAddr: 0x100007578, symSize: 0x2C }
  - { offsetInCU: 0x17848, offset: 0x17848, size: 0x8, addend: 0x0, symName: __ZNSt3__15dequeI4NodeNS_9allocatorIS1_EEE9push_backERKS1_, symObjAddr: 0x38E4, symBinAddr: 0x1000075A4, symSize: 0xA0 }
  - { offsetInCU: 0x1788E, offset: 0x1788E, size: 0x8, addend: 0x0, symName: __ZNSt3__15dequeI4NodeNS_9allocatorIS1_EEE7__allocB7v160006Ev, symObjAddr: 0x3984, symBinAddr: 0x100007644, symSize: 0x28 }
  - { offsetInCU: 0x178B4, offset: 0x178B4, size: 0x8, addend: 0x0, symName: __ZNKSt3__15dequeI4NodeNS_9allocatorIS1_EEE12__back_spareB7v160006Ev, symObjAddr: 0x39AC, symBinAddr: 0x10000766C, symSize: 0x54 }
  - { offsetInCU: 0x178DA, offset: 0x178DA, size: 0x8, addend: 0x0, symName: __ZNSt3__15dequeI4NodeNS_9allocatorIS1_EEE19__add_back_capacityEv, symObjAddr: 0x3A00, symBinAddr: 0x1000076C0, symSize: 0x314 }
  - { offsetInCU: 0x1798F, offset: 0x1798F, size: 0x8, addend: 0x0, symName: __ZNSt3__116allocator_traitsINS_9allocatorI4NodeEEE9constructB7v160006IS2_JRKS2_EvEEvRS3_PT_DpOT0_, symObjAddr: 0x3D14, symBinAddr: 0x1000079D4, symSize: 0x34 }
  - { offsetInCU: 0x179E6, offset: 0x179E6, size: 0x8, addend: 0x0, symName: __ZNSt3__15dequeI4NodeNS_9allocatorIS1_EEE3endB7v160006Ev, symObjAddr: 0x3D48, symBinAddr: 0x100007A08, symSize: 0xD4 }
  - { offsetInCU: 0x17A2A, offset: 0x17A2A, size: 0x8, addend: 0x0, symName: __ZNKSt3__116__deque_iteratorI4NodePS1_RS1_PS2_lLl102EEdeB7v160006Ev, symObjAddr: 0x3E1C, symBinAddr: 0x100007ADC, symSize: 0x18 }
  - { offsetInCU: 0x17A50, offset: 0x17A50, size: 0x8, addend: 0x0, symName: __ZNSt3__15dequeI4NodeNS_9allocatorIS1_EEE6__sizeB7v160006Ev, symObjAddr: 0x3E34, symBinAddr: 0x100007AF4, symSize: 0x28 }
  - { offsetInCU: 0x17A76, offset: 0x17A76, size: 0x8, addend: 0x0, symName: __ZNSt3__117__compressed_pairImNS_9allocatorI4NodeEEE6secondB7v160006Ev, symObjAddr: 0x3E5C, symBinAddr: 0x100007B1C, symSize: 0x24 }
  - { offsetInCU: 0x17A9C, offset: 0x17A9C, size: 0x8, addend: 0x0, symName: __ZNSt3__122__compressed_pair_elemINS_9allocatorI4NodeEELi1ELb1EE5__getB7v160006Ev, symObjAddr: 0x3E80, symBinAddr: 0x100007B40, symSize: 0x14 }
  - { offsetInCU: 0x17AC2, offset: 0x17AC2, size: 0x8, addend: 0x0, symName: __ZNKSt3__15dequeI4NodeNS_9allocatorIS1_EEE10__capacityB7v160006Ev, symObjAddr: 0x3E94, symBinAddr: 0x100007B54, symSize: 0x64 }
  - { offsetInCU: 0x17AE8, offset: 0x17AE8, size: 0x8, addend: 0x0, symName: __ZNKSt3__15dequeI4NodeNS_9allocatorIS1_EEE4sizeB7v160006Ev, symObjAddr: 0x3EF8, symBinAddr: 0x100007BB8, symSize: 0x28 }
  - { offsetInCU: 0x17B0E, offset: 0x17B0E, size: 0x8, addend: 0x0, symName: __ZNKSt3__114__split_bufferIP4NodeNS_9allocatorIS2_EEE4sizeB7v160006Ev, symObjAddr: 0x3F20, symBinAddr: 0x100007BE0, symSize: 0x28 }
  - { offsetInCU: 0x17B34, offset: 0x17B34, size: 0x8, addend: 0x0, symName: __ZNKSt3__15dequeI4NodeNS_9allocatorIS1_EEE6__sizeB7v160006Ev, symObjAddr: 0x3F48, symBinAddr: 0x100007C08, symSize: 0x28 }
  - { offsetInCU: 0x17B5A, offset: 0x17B5A, size: 0x8, addend: 0x0, symName: __ZNKSt3__117__compressed_pairImNS_9allocatorI4NodeEEE5firstB7v160006Ev, symObjAddr: 0x3F70, symBinAddr: 0x100007C30, symSize: 0x24 }
  - { offsetInCU: 0x17B80, offset: 0x17B80, size: 0x8, addend: 0x0, symName: __ZNKSt3__122__compressed_pair_elemImLi0ELb0EE5__getB7v160006Ev, symObjAddr: 0x3F94, symBinAddr: 0x100007C54, symSize: 0x14 }
  - { offsetInCU: 0x17BA6, offset: 0x17BA6, size: 0x8, addend: 0x0, symName: __ZNKSt3__15dequeI4NodeNS_9allocatorIS1_EEE13__front_spareB7v160006Ev, symObjAddr: 0x3FA8, symBinAddr: 0x100007C68, symSize: 0x18 }
  - { offsetInCU: 0x17BCC, offset: 0x17BCC, size: 0x8, addend: 0x0, symName: __ZNSt3__114__split_bufferIP4NodeNS_9allocatorIS2_EEE5frontB7v160006Ev, symObjAddr: 0x3FC0, symBinAddr: 0x100007C80, symSize: 0x18 }
  - { offsetInCU: 0x17BF2, offset: 0x17BF2, size: 0x8, addend: 0x0, symName: __ZNSt3__114__split_bufferIP4NodeNS_9allocatorIS2_EEE9pop_frontB7v160006Ev, symObjAddr: 0x3FD8, symBinAddr: 0x100007C98, symSize: 0x2C }
  - { offsetInCU: 0x17C18, offset: 0x17C18, size: 0x8, addend: 0x0, symName: __ZNSt3__114__split_bufferIP4NodeNS_9allocatorIS2_EEE9push_backB7v160006ERKS2_, symObjAddr: 0x4004, symBinAddr: 0x100007CC4, symSize: 0x260 }
  - { offsetInCU: 0x17C90, offset: 0x17C90, size: 0x8, addend: 0x0, symName: __ZNKSt3__114__split_bufferIP4NodeNS_9allocatorIS2_EEE8capacityB7v160006Ev, symObjAddr: 0x4264, symBinAddr: 0x100007F24, symSize: 0x40 }
  - { offsetInCU: 0x17CB6, offset: 0x17CB6, size: 0x8, addend: 0x0, symName: __ZNKSt3__114__split_bufferIP4NodeNS_9allocatorIS2_EEE12__back_spareB7v160006Ev, symObjAddr: 0x42A4, symBinAddr: 0x100007F64, symSize: 0x40 }
  - { offsetInCU: 0x17CDC, offset: 0x17CDC, size: 0x8, addend: 0x0, symName: __ZNSt3__114__split_bufferIP4NodeNS_9allocatorIS2_EEE9push_backEOS2_, symObjAddr: 0x42E4, symBinAddr: 0x100007FA4, symSize: 0x260 }
  - { offsetInCU: 0x17D54, offset: 0x17D54, size: 0x8, addend: 0x0, symName: __ZNSt3__116allocator_traitsINS_9allocatorI4NodeEEE8allocateB7v160006ERS3_m, symObjAddr: 0x4544, symBinAddr: 0x100008204, symSize: 0x2C }
  - { offsetInCU: 0x17D87, offset: 0x17D87, size: 0x8, addend: 0x0, symName: __ZNSt3__114__split_bufferIP4NodeNS_9allocatorIS2_EEE10push_frontEOS2_, symObjAddr: 0x4570, symBinAddr: 0x100008230, symSize: 0x25C }
  - { offsetInCU: 0x17DFF, offset: 0x17DFF, size: 0x8, addend: 0x0, symName: __ZNSt3__114__split_bufferIP4NodeNS_9allocatorIS2_EEE7__allocB7v160006Ev, symObjAddr: 0x47CC, symBinAddr: 0x10000848C, symSize: 0x28 }
  - { offsetInCU: 0x17E25, offset: 0x17E25, size: 0x8, addend: 0x0, symName: __ZNSt3__114__split_bufferIP4NodeRNS_9allocatorIS2_EEEC1EmmS5_, symObjAddr: 0x47F4, symBinAddr: 0x1000084B4, symSize: 0x44 }
  - { offsetInCU: 0x17E80, offset: 0x17E80, size: 0x8, addend: 0x0, symName: __ZNSt3__122__allocator_destructorINS_9allocatorI4NodeEEEC1B7v160006ERS3_m, symObjAddr: 0x4838, symBinAddr: 0x1000084F8, symSize: 0x3C }
  - { offsetInCU: 0x17F45, offset: 0x17F45, size: 0x8, addend: 0x0, symName: __ZNSt3__110unique_ptrIP4NodeNS_22__allocator_destructorINS_9allocatorIS1_EEEEEC1B7v160006ILb1EvEES2_NS_16__dependent_typeINS_27__unique_ptr_deleter_sfinaeIS6_EEXT_EE20__good_rval_ref_typeE, symObjAddr: 0x4874, symBinAddr: 0x100008534, symSize: 0x3C }
  - { offsetInCU: 0x17F96, offset: 0x17F96, size: 0x8, addend: 0x0, symName: __ZNSt3__114__split_bufferIP4NodeRNS_9allocatorIS2_EEE9push_backEOS2_, symObjAddr: 0x48B0, symBinAddr: 0x100008570, symSize: 0x260 }
  - { offsetInCU: 0x1800E, offset: 0x1800E, size: 0x8, addend: 0x0, symName: __ZNKSt3__110unique_ptrIP4NodeNS_22__allocator_destructorINS_9allocatorIS1_EEEEE3getB7v160006Ev, symObjAddr: 0x4B10, symBinAddr: 0x1000087D0, symSize: 0x28 }
  - { offsetInCU: 0x18034, offset: 0x18034, size: 0x8, addend: 0x0, symName: __ZNSt3__110unique_ptrIP4NodeNS_22__allocator_destructorINS_9allocatorIS1_EEEEE7releaseB7v160006Ev, symObjAddr: 0x4B38, symBinAddr: 0x1000087F8, symSize: 0x44 }
  - { offsetInCU: 0x18069, offset: 0x18069, size: 0x8, addend: 0x0, symName: __ZNSt3__114__split_bufferIP4NodeNS_9allocatorIS2_EEE3endB7v160006Ev, symObjAddr: 0x4B7C, symBinAddr: 0x10000883C, symSize: 0x18 }
  - { offsetInCU: 0x1808F, offset: 0x1808F, size: 0x8, addend: 0x0, symName: __ZNSt3__114__split_bufferIP4NodeNS_9allocatorIS2_EEE5beginB7v160006Ev, symObjAddr: 0x4B94, symBinAddr: 0x100008854, symSize: 0x18 }
  - { offsetInCU: 0x180B5, offset: 0x180B5, size: 0x8, addend: 0x0, symName: __ZNSt3__114__split_bufferIP4NodeRNS_9allocatorIS2_EEE10push_frontERKS2_, symObjAddr: 0x4BAC, symBinAddr: 0x10000886C, symSize: 0x25C }
  - { offsetInCU: 0x1812D, offset: 0x1812D, size: 0x8, addend: 0x0, symName: __ZNSt3__114__split_bufferIP4NodeNS_9allocatorIS2_EEE9__end_capB7v160006Ev, symObjAddr: 0x4E44, symBinAddr: 0x100008B04, symSize: 0x28 }
  - { offsetInCU: 0x18153, offset: 0x18153, size: 0x8, addend: 0x0, symName: __ZNSt3__114__split_bufferIP4NodeRNS_9allocatorIS2_EEE9__end_capB7v160006Ev, symObjAddr: 0x4E6C, symBinAddr: 0x100008B2C, symSize: 0x28 }
  - { offsetInCU: 0x18179, offset: 0x18179, size: 0x8, addend: 0x0, symName: __ZNSt3__110unique_ptrIP4NodeNS_22__allocator_destructorINS_9allocatorIS1_EEEEED1B7v160006Ev, symObjAddr: 0x4E94, symBinAddr: 0x100008B54, symSize: 0x2C }
  - { offsetInCU: 0x181A3, offset: 0x181A3, size: 0x8, addend: 0x0, symName: __ZNSt3__114__split_bufferIP4NodeRNS_9allocatorIS2_EEED1Ev, symObjAddr: 0x4EC0, symBinAddr: 0x100008B80, symSize: 0x2C }
  - { offsetInCU: 0x181CF, offset: 0x181CF, size: 0x8, addend: 0x0, symName: __ZNSt3__114__split_bufferIP4NodeNS_9allocatorIS2_EEE19__destruct_at_beginB7v160006EPS2_, symObjAddr: 0x4EEC, symBinAddr: 0x100008BAC, symSize: 0x2C }
  - { offsetInCU: 0x18203, offset: 0x18203, size: 0x8, addend: 0x0, symName: __ZNSt3__114__split_bufferIP4NodeNS_9allocatorIS2_EEE19__destruct_at_beginEPS2_NS_17integral_constantIbLb1EEE, symObjAddr: 0x4F18, symBinAddr: 0x100008BD8, symSize: 0x20 }
  - { offsetInCU: 0x18243, offset: 0x18243, size: 0x8, addend: 0x0, symName: __ZNSt3__114__split_bufferIP4NodeRNS_9allocatorIS2_EEE18__construct_at_endINS_13move_iteratorIPS2_EEEENS_9enable_ifIXsr27__is_cpp17_forward_iteratorIT_EE5valueEvE4typeESC_SC_, symObjAddr: 0x4F78, symBinAddr: 0x100008C38, symSize: 0xFC }
  - { offsetInCU: 0x1829F, offset: 0x1829F, size: 0x8, addend: 0x0, symName: __ZNSt3__113move_iteratorIPP4NodeEC1B7v160006ES3_, symObjAddr: 0x5074, symBinAddr: 0x100008D34, symSize: 0x34 }
  - { offsetInCU: 0x182D7, offset: 0x182D7, size: 0x8, addend: 0x0, symName: __ZNSt3__116allocator_traitsINS_9allocatorIP4NodeEEE9constructB7v160006IS3_JRKS3_EvEEvRS4_PT_DpOT0_, symObjAddr: 0x50A8, symBinAddr: 0x100008D68, symSize: 0x34 }
  - { offsetInCU: 0x18352, offset: 0x18352, size: 0x8, addend: 0x0, symName: __ZNKSt3__114__move_trivialclB7v160006IP4NodeS3_Li0EEENS_4pairIPT_PT0_EES6_S6_S8_, symObjAddr: 0x528C, symBinAddr: 0x100008F4C, symSize: 0x48 }
  - { offsetInCU: 0x183C0, offset: 0x183C0, size: 0x8, addend: 0x0, symName: __ZNSt3__14pairIPP4NodeS3_EC1B7v160006IRS3_S3_LPv0EEEOT_OT0_, symObjAddr: 0x5454, symBinAddr: 0x100009114, symSize: 0x3C }
  - { offsetInCU: 0x1841E, offset: 0x1841E, size: 0x8, addend: 0x0, symName: __ZNSt3__14pairIPP4NodeS3_EC2B7v160006IRS3_S3_LPv0EEEOT_OT0_, symObjAddr: 0x5490, symBinAddr: 0x100009150, symSize: 0x34 }
  - { offsetInCU: 0x1847C, offset: 0x1847C, size: 0x8, addend: 0x0, symName: __ZNSt3__118__unwrap_iter_implIPP4NodeLb1EE8__unwrapB7v160006ES3_, symObjAddr: 0x54C4, symBinAddr: 0x100009184, symSize: 0x24 }
  - { offsetInCU: 0x1849F, offset: 0x1849F, size: 0x8, addend: 0x0, symName: __ZNSt3__14pairIPP4NodeS3_EC1B7v160006IS3_S3_LPv0EEEOT_OT0_, symObjAddr: 0x54E8, symBinAddr: 0x1000091A8, symSize: 0x3C }
  - { offsetInCU: 0x184FD, offset: 0x184FD, size: 0x8, addend: 0x0, symName: __ZNSt3__14pairIPP4NodeS3_EC2B7v160006IS3_S3_LPv0EEEOT_OT0_, symObjAddr: 0x5524, symBinAddr: 0x1000091E4, symSize: 0x34 }
  - { offsetInCU: 0x1855B, offset: 0x1855B, size: 0x8, addend: 0x0, symName: __ZNSt3__118__unwrap_iter_implIPP4NodeLb1EE8__rewrapB7v160006ES3_S3_, symObjAddr: 0x5558, symBinAddr: 0x100009218, symSize: 0x50 }
  - { offsetInCU: 0x18596, offset: 0x18596, size: 0x8, addend: 0x0, symName: __ZNSt3__114__split_bufferIP4NodeRNS_9allocatorIS2_EEE21_ConstructTransactionC1B7v160006EPPS2_m, symObjAddr: 0x55E4, symBinAddr: 0x1000092A4, symSize: 0x3C }
  - { offsetInCU: 0x185DC, offset: 0x185DC, size: 0x8, addend: 0x0, symName: __ZNSt3__116allocator_traitsINS_9allocatorIP4NodeEEE9constructB7v160006IS3_JS3_EvEEvRS4_PT_DpOT0_, symObjAddr: 0x5620, symBinAddr: 0x1000092E0, symSize: 0x34 }
  - { offsetInCU: 0x18633, offset: 0x18633, size: 0x8, addend: 0x0, symName: __ZNSt3__114__split_bufferIP4NodeRNS_9allocatorIS2_EEE7__allocB7v160006Ev, symObjAddr: 0x5654, symBinAddr: 0x100009314, symSize: 0x28 }
  - { offsetInCU: 0x18659, offset: 0x18659, size: 0x8, addend: 0x0, symName: __ZNKSt3__113move_iteratorIPP4NodeEdeB7v160006Ev, symObjAddr: 0x567C, symBinAddr: 0x10000933C, symSize: 0x18 }
  - { offsetInCU: 0x1867F, offset: 0x1867F, size: 0x8, addend: 0x0, symName: __ZNSt3__113move_iteratorIPP4NodeEppB7v160006Ev, symObjAddr: 0x5694, symBinAddr: 0x100009354, symSize: 0x20 }
  - { offsetInCU: 0x186A5, offset: 0x186A5, size: 0x8, addend: 0x0, symName: __ZNSt3__114__split_bufferIP4NodeRNS_9allocatorIS2_EEE21_ConstructTransactionD1B7v160006Ev, symObjAddr: 0x56B4, symBinAddr: 0x100009374, symSize: 0x2C }
  - { offsetInCU: 0x186CF, offset: 0x186CF, size: 0x8, addend: 0x0, symName: __ZNKSt3__113move_iteratorIPP4NodeE4baseB7v160006Ev, symObjAddr: 0x5758, symBinAddr: 0x100009418, symSize: 0x18 }
  - { offsetInCU: 0x186F5, offset: 0x186F5, size: 0x8, addend: 0x0, symName: __ZNSt3__114__split_bufferIP4NodeRNS_9allocatorIS2_EEE21_ConstructTransactionC2B7v160006EPPS2_m, symObjAddr: 0x5770, symBinAddr: 0x100009430, symSize: 0x44 }
  - { offsetInCU: 0x1873B, offset: 0x1873B, size: 0x8, addend: 0x0, symName: __ZNSt3__19allocatorIP4NodeE9constructB7v160006IS2_JS2_EEEvPT_DpOT0_, symObjAddr: 0x57B4, symBinAddr: 0x100009474, symSize: 0x28 }
  - { offsetInCU: 0x18791, offset: 0x18791, size: 0x8, addend: 0x0, symName: __ZNSt3__117__compressed_pairIPP4NodeRNS_9allocatorIS2_EEE6secondB7v160006Ev, symObjAddr: 0x57DC, symBinAddr: 0x10000949C, symSize: 0x28 }
  - { offsetInCU: 0x187B7, offset: 0x187B7, size: 0x8, addend: 0x0, symName: __ZNSt3__122__compressed_pair_elemIRNS_9allocatorIP4NodeEELi1ELb0EE5__getB7v160006Ev, symObjAddr: 0x5804, symBinAddr: 0x1000094C4, symSize: 0x18 }
  - { offsetInCU: 0x187DD, offset: 0x187DD, size: 0x8, addend: 0x0, symName: __ZNSt3__114__split_bufferIP4NodeRNS_9allocatorIS2_EEE21_ConstructTransactionD2B7v160006Ev, symObjAddr: 0x581C, symBinAddr: 0x1000094DC, symSize: 0x20 }
  - { offsetInCU: 0x18807, offset: 0x18807, size: 0x8, addend: 0x0, symName: __ZNSt3__113move_iteratorIPP4NodeEC2B7v160006ES3_, symObjAddr: 0x583C, symBinAddr: 0x1000094FC, symSize: 0x20 }
  - { offsetInCU: 0x1883F, offset: 0x1883F, size: 0x8, addend: 0x0, symName: __ZNSt3__19allocatorIP4NodeE9constructB7v160006IS2_JRKS2_EEEvPT_DpOT0_, symObjAddr: 0x585C, symBinAddr: 0x10000951C, symSize: 0x28 }
  - { offsetInCU: 0x18895, offset: 0x18895, size: 0x8, addend: 0x0, symName: __ZNKSt3__114__split_bufferIP4NodeNS_9allocatorIS2_EEE9__end_capB7v160006Ev, symObjAddr: 0x5884, symBinAddr: 0x100009544, symSize: 0x28 }
  - { offsetInCU: 0x188BB, offset: 0x188BB, size: 0x8, addend: 0x0, symName: __ZNKSt3__117__compressed_pairIPP4NodeNS_9allocatorIS2_EEE5firstB7v160006Ev, symObjAddr: 0x58AC, symBinAddr: 0x10000956C, symSize: 0x24 }
  - { offsetInCU: 0x188E1, offset: 0x188E1, size: 0x8, addend: 0x0, symName: __ZNKSt3__122__compressed_pair_elemIPP4NodeLi0ELb0EE5__getB7v160006Ev, symObjAddr: 0x58D0, symBinAddr: 0x100009590, symSize: 0x14 }
  - { offsetInCU: 0x18907, offset: 0x18907, size: 0x8, addend: 0x0, symName: __ZNSt3__19allocatorI4NodeE8allocateB7v160006Em, symObjAddr: 0x58E4, symBinAddr: 0x1000095A4, symSize: 0x5C }
  - { offsetInCU: 0x18945, offset: 0x18945, size: 0x8, addend: 0x0, symName: __ZNSt3__116allocator_traitsINS_9allocatorI4NodeEEE8max_sizeB7v160006IS3_vEEmRKS3_, symObjAddr: 0x5940, symBinAddr: 0x100009600, symSize: 0x24 }
  - { offsetInCU: 0x18973, offset: 0x18973, size: 0x8, addend: 0x0, symName: __ZNKSt3__19allocatorI4NodeE8max_sizeB7v160006Ev, symObjAddr: 0x5964, symBinAddr: 0x100009624, symSize: 0x18 }
  - { offsetInCU: 0x189A3, offset: 0x189A3, size: 0x8, addend: 0x0, symName: __ZNKSt3__123__move_backward_trivialclB7v160006IP4NodeS3_Li0EEENS_4pairIPT_PT0_EES6_S6_S8_, symObjAddr: 0x5AF8, symBinAddr: 0x1000097B8, symSize: 0x48 }
  - { offsetInCU: 0x18A0B, offset: 0x18A0B, size: 0x8, addend: 0x0, symName: __ZNSt3__14pairIPP4NodeS3_EC1B7v160006IRS3_S6_LPv0EEEOT_OT0_, symObjAddr: 0x5C0C, symBinAddr: 0x1000098CC, symSize: 0x3C }
  - { offsetInCU: 0x18A69, offset: 0x18A69, size: 0x8, addend: 0x0, symName: __ZNSt3__14pairIPP4NodeS3_EC2B7v160006IRS3_S6_LPv0EEEOT_OT0_, symObjAddr: 0x5C48, symBinAddr: 0x100009908, symSize: 0x34 }
  - { offsetInCU: 0x18AC7, offset: 0x18AC7, size: 0x8, addend: 0x0, symName: __ZNSt3__117__compressed_pairIPP4NodeNS_9allocatorIS2_EEE6secondB7v160006Ev, symObjAddr: 0x5C7C, symBinAddr: 0x10000993C, symSize: 0x24 }
  - { offsetInCU: 0x18AED, offset: 0x18AED, size: 0x8, addend: 0x0, symName: __ZNSt3__122__compressed_pair_elemINS_9allocatorIP4NodeEELi1ELb1EE5__getB7v160006Ev, symObjAddr: 0x5CA0, symBinAddr: 0x100009960, symSize: 0x14 }
  - { offsetInCU: 0x18B13, offset: 0x18B13, size: 0x8, addend: 0x0, symName: __ZNSt3__114__split_bufferIP4NodeRNS_9allocatorIS2_EEEC2EmmS5_, symObjAddr: 0x5CB4, symBinAddr: 0x100009974, symSize: 0xD4 }
  - { offsetInCU: 0x18B86, offset: 0x18B86, size: 0x8, addend: 0x0, symName: __ZNSt3__117__compressed_pairIPP4NodeRNS_9allocatorIS2_EEEC1B7v160006IDnS6_EEOT_OT0_, symObjAddr: 0x5D88, symBinAddr: 0x100009A48, symSize: 0x3C }
  - { offsetInCU: 0x18BDE, offset: 0x18BDE, size: 0x8, addend: 0x0, symName: __ZNSt3__117__compressed_pairIPP4NodeRNS_9allocatorIS2_EEEC2B7v160006IDnS6_EEOT_OT0_, symObjAddr: 0x5E04, symBinAddr: 0x100009AC4, symSize: 0x48 }
  - { offsetInCU: 0x18C36, offset: 0x18C36, size: 0x8, addend: 0x0, symName: __ZNSt3__122__compressed_pair_elemIRNS_9allocatorIP4NodeEELi1ELb0EEC2B7v160006IS5_vEEOT_, symObjAddr: 0x5E4C, symBinAddr: 0x100009B0C, symSize: 0x20 }
  - { offsetInCU: 0x18C78, offset: 0x18C78, size: 0x8, addend: 0x0, symName: __ZNSt3__19allocatorIP4NodeE8allocateB7v160006Em, symObjAddr: 0x5E6C, symBinAddr: 0x100009B2C, symSize: 0x58 }
  - { offsetInCU: 0x18CB6, offset: 0x18CB6, size: 0x8, addend: 0x0, symName: __ZNSt3__116allocator_traitsINS_9allocatorIP4NodeEEE8max_sizeB7v160006IS4_vEEmRKS4_, symObjAddr: 0x5EC4, symBinAddr: 0x100009B84, symSize: 0x24 }
  - { offsetInCU: 0x18CE4, offset: 0x18CE4, size: 0x8, addend: 0x0, symName: __ZNKSt3__19allocatorIP4NodeE8max_sizeB7v160006Ev, symObjAddr: 0x5EE8, symBinAddr: 0x100009BA8, symSize: 0x14 }
  - { offsetInCU: 0x18D0A, offset: 0x18D0A, size: 0x8, addend: 0x0, symName: __ZNSt3__122__allocator_destructorINS_9allocatorI4NodeEEEC2B7v160006ERS3_m, symObjAddr: 0x5EFC, symBinAddr: 0x100009BBC, symSize: 0x2C }
  - { offsetInCU: 0x18D50, offset: 0x18D50, size: 0x8, addend: 0x0, symName: __ZNSt3__110unique_ptrIP4NodeNS_22__allocator_destructorINS_9allocatorIS1_EEEEEC2B7v160006ILb1EvEES2_NS_16__dependent_typeINS_27__unique_ptr_deleter_sfinaeIS6_EEXT_EE20__good_rval_ref_typeE, symObjAddr: 0x5F28, symBinAddr: 0x100009BE8, symSize: 0x48 }
  - { offsetInCU: 0x18DA1, offset: 0x18DA1, size: 0x8, addend: 0x0, symName: __ZNSt3__117__compressed_pairIP4NodeNS_22__allocator_destructorINS_9allocatorIS1_EEEEEC1B7v160006IRS2_S6_EEOT_OT0_, symObjAddr: 0x5F70, symBinAddr: 0x100009C30, symSize: 0x3C }
  - { offsetInCU: 0x18DF9, offset: 0x18DF9, size: 0x8, addend: 0x0, symName: __ZNSt3__117__compressed_pairIP4NodeNS_22__allocator_destructorINS_9allocatorIS1_EEEEEC2B7v160006IRS2_S6_EEOT_OT0_, symObjAddr: 0x5FAC, symBinAddr: 0x100009C6C, symSize: 0x48 }
  - { offsetInCU: 0x18E51, offset: 0x18E51, size: 0x8, addend: 0x0, symName: __ZNSt3__122__compressed_pair_elemIP4NodeLi0ELb0EEC2B7v160006IRS2_vEEOT_, symObjAddr: 0x5FF4, symBinAddr: 0x100009CB4, symSize: 0x24 }
  - { offsetInCU: 0x18E93, offset: 0x18E93, size: 0x8, addend: 0x0, symName: __ZNSt3__122__compressed_pair_elemINS_22__allocator_destructorINS_9allocatorI4NodeEEEELi1ELb0EEC2B7v160006IS5_vEEOT_, symObjAddr: 0x6018, symBinAddr: 0x100009CD8, symSize: 0x24 }
  - { offsetInCU: 0x18ED5, offset: 0x18ED5, size: 0x8, addend: 0x0, symName: __ZNKSt3__117__compressed_pairIP4NodeNS_22__allocator_destructorINS_9allocatorIS1_EEEEE5firstB7v160006Ev, symObjAddr: 0x603C, symBinAddr: 0x100009CFC, symSize: 0x24 }
  - { offsetInCU: 0x18EFB, offset: 0x18EFB, size: 0x8, addend: 0x0, symName: __ZNKSt3__122__compressed_pair_elemIP4NodeLi0ELb0EE5__getB7v160006Ev, symObjAddr: 0x6060, symBinAddr: 0x100009D20, symSize: 0x14 }
  - { offsetInCU: 0x18F21, offset: 0x18F21, size: 0x8, addend: 0x0, symName: __ZNSt3__117__compressed_pairIP4NodeNS_22__allocator_destructorINS_9allocatorIS1_EEEEE5firstB7v160006Ev, symObjAddr: 0x6074, symBinAddr: 0x100009D34, symSize: 0x24 }
  - { offsetInCU: 0x18F47, offset: 0x18F47, size: 0x8, addend: 0x0, symName: __ZNSt3__122__compressed_pair_elemIP4NodeLi0ELb0EE5__getB7v160006Ev, symObjAddr: 0x6098, symBinAddr: 0x100009D58, symSize: 0x14 }
  - { offsetInCU: 0x18F6D, offset: 0x18F6D, size: 0x8, addend: 0x0, symName: __ZNSt3__117__compressed_pairIPP4NodeNS_9allocatorIS2_EEE5firstB7v160006Ev, symObjAddr: 0x60AC, symBinAddr: 0x100009D6C, symSize: 0x24 }
  - { offsetInCU: 0x18F93, offset: 0x18F93, size: 0x8, addend: 0x0, symName: __ZNSt3__122__compressed_pair_elemIPP4NodeLi0ELb0EE5__getB7v160006Ev, symObjAddr: 0x60D0, symBinAddr: 0x100009D90, symSize: 0x14 }
  - { offsetInCU: 0x18FB9, offset: 0x18FB9, size: 0x8, addend: 0x0, symName: __ZNSt3__117__compressed_pairIPP4NodeRNS_9allocatorIS2_EEE5firstB7v160006Ev, symObjAddr: 0x60E4, symBinAddr: 0x100009DA4, symSize: 0x24 }
  - { offsetInCU: 0x18FDF, offset: 0x18FDF, size: 0x8, addend: 0x0, symName: __ZNSt3__110unique_ptrIP4NodeNS_22__allocator_destructorINS_9allocatorIS1_EEEEED2B7v160006Ev, symObjAddr: 0x6108, symBinAddr: 0x100009DC8, symSize: 0x30 }
  - { offsetInCU: 0x19009, offset: 0x19009, size: 0x8, addend: 0x0, symName: __ZNSt3__110unique_ptrIP4NodeNS_22__allocator_destructorINS_9allocatorIS1_EEEEE5resetB7v160006ES2_, symObjAddr: 0x6138, symBinAddr: 0x100009DF8, symSize: 0x78 }
  - { offsetInCU: 0x1904D, offset: 0x1904D, size: 0x8, addend: 0x0, symName: __ZNSt3__117__compressed_pairIP4NodeNS_22__allocator_destructorINS_9allocatorIS1_EEEEE6secondB7v160006Ev, symObjAddr: 0x61B0, symBinAddr: 0x100009E70, symSize: 0x28 }
  - { offsetInCU: 0x19073, offset: 0x19073, size: 0x8, addend: 0x0, symName: __ZNSt3__122__allocator_destructorINS_9allocatorI4NodeEEEclB7v160006EPS2_, symObjAddr: 0x61D8, symBinAddr: 0x100009E98, symSize: 0x34 }
  - { offsetInCU: 0x190A7, offset: 0x190A7, size: 0x8, addend: 0x0, symName: __ZNSt3__122__compressed_pair_elemINS_22__allocator_destructorINS_9allocatorI4NodeEEEELi1ELb0EE5__getB7v160006Ev, symObjAddr: 0x620C, symBinAddr: 0x100009ECC, symSize: 0x14 }
  - { offsetInCU: 0x190CD, offset: 0x190CD, size: 0x8, addend: 0x0, symName: __ZNSt3__116allocator_traitsINS_9allocatorI4NodeEEE10deallocateB7v160006ERS3_PS2_m, symObjAddr: 0x6220, symBinAddr: 0x100009EE0, symSize: 0x34 }
  - { offsetInCU: 0x1910F, offset: 0x1910F, size: 0x8, addend: 0x0, symName: __ZNSt3__19allocatorI4NodeE10deallocateB7v160006EPS1_m, symObjAddr: 0x6254, symBinAddr: 0x100009F14, symSize: 0x44 }
  - { offsetInCU: 0x19151, offset: 0x19151, size: 0x8, addend: 0x0, symName: __ZNSt3__114__split_bufferIP4NodeRNS_9allocatorIS2_EEED2Ev, symObjAddr: 0x6298, symBinAddr: 0x100009F58, symSize: 0x8C }
  - { offsetInCU: 0x1917D, offset: 0x1917D, size: 0x8, addend: 0x0, symName: __ZNSt3__114__split_bufferIP4NodeRNS_9allocatorIS2_EEE5clearB7v160006Ev, symObjAddr: 0x6324, symBinAddr: 0x100009FE4, symSize: 0x28 }
  - { offsetInCU: 0x191A3, offset: 0x191A3, size: 0x8, addend: 0x0, symName: __ZNSt3__116allocator_traitsINS_9allocatorIP4NodeEEE10deallocateB7v160006ERS4_PS3_m, symObjAddr: 0x634C, symBinAddr: 0x10000A00C, symSize: 0x34 }
  - { offsetInCU: 0x191E5, offset: 0x191E5, size: 0x8, addend: 0x0, symName: __ZNKSt3__114__split_bufferIP4NodeRNS_9allocatorIS2_EEE8capacityB7v160006Ev, symObjAddr: 0x6380, symBinAddr: 0x10000A040, symSize: 0x40 }
  - { offsetInCU: 0x1920B, offset: 0x1920B, size: 0x8, addend: 0x0, symName: __ZNSt3__114__split_bufferIP4NodeRNS_9allocatorIS2_EEE17__destruct_at_endB7v160006EPS2_, symObjAddr: 0x63C0, symBinAddr: 0x10000A080, symSize: 0x2C }
  - { offsetInCU: 0x1923F, offset: 0x1923F, size: 0x8, addend: 0x0, symName: __ZNSt3__114__split_bufferIP4NodeRNS_9allocatorIS2_EEE17__destruct_at_endB7v160006EPS2_NS_17integral_constantIbLb0EEE, symObjAddr: 0x63EC, symBinAddr: 0x10000A0AC, symSize: 0x80 }
  - { offsetInCU: 0x1927F, offset: 0x1927F, size: 0x8, addend: 0x0, symName: __ZNSt3__116allocator_traitsINS_9allocatorIP4NodeEEE7destroyB7v160006IS3_vEEvRS4_PT_, symObjAddr: 0x646C, symBinAddr: 0x10000A12C, symSize: 0x2C }
  - { offsetInCU: 0x192BC, offset: 0x192BC, size: 0x8, addend: 0x0, symName: __ZNSt3__19allocatorIP4NodeE7destroyB7v160006EPS2_, symObjAddr: 0x6498, symBinAddr: 0x10000A158, symSize: 0x14 }
  - { offsetInCU: 0x192F0, offset: 0x192F0, size: 0x8, addend: 0x0, symName: __ZNSt3__19allocatorIP4NodeE10deallocateB7v160006EPS2_m, symObjAddr: 0x64AC, symBinAddr: 0x10000A16C, symSize: 0x40 }
  - { offsetInCU: 0x19332, offset: 0x19332, size: 0x8, addend: 0x0, symName: __ZNKSt3__114__split_bufferIP4NodeRNS_9allocatorIS2_EEE9__end_capB7v160006Ev, symObjAddr: 0x64EC, symBinAddr: 0x10000A1AC, symSize: 0x28 }
  - { offsetInCU: 0x19358, offset: 0x19358, size: 0x8, addend: 0x0, symName: __ZNKSt3__117__compressed_pairIPP4NodeRNS_9allocatorIS2_EEE5firstB7v160006Ev, symObjAddr: 0x6514, symBinAddr: 0x10000A1D4, symSize: 0x24 }
  - { offsetInCU: 0x1937E, offset: 0x1937E, size: 0x8, addend: 0x0, symName: __ZNSt3__19allocatorI4NodeE9constructB7v160006IS1_JRKS1_EEEvPT_DpOT0_, symObjAddr: 0x6538, symBinAddr: 0x10000A1F8, symSize: 0x30 }
  - { offsetInCU: 0x193D4, offset: 0x193D4, size: 0x8, addend: 0x0, symName: __ZNKSt3__114__split_bufferIP4NodeNS_9allocatorIS2_EEE5emptyB7v160006Ev, symObjAddr: 0x6568, symBinAddr: 0x10000A228, symSize: 0x28 }
  - { offsetInCU: 0x193FA, offset: 0x193FA, size: 0x8, addend: 0x0, symName: __ZNSt3__116__deque_iteratorI4NodePS1_RS1_PS2_lLl102EEC1B7v160006ES4_S2_, symObjAddr: 0x6590, symBinAddr: 0x10000A250, symSize: 0x3C }
  - { offsetInCU: 0x19442, offset: 0x19442, size: 0x8, addend: 0x0, symName: __ZNSt3__116__deque_iteratorI4NodePS1_RS1_PS2_lLl102EEC2B7v160006ES4_S2_, symObjAddr: 0x65CC, symBinAddr: 0x10000A28C, symSize: 0x2C }
  - { offsetInCU: 0x1948A, offset: 0x1948A, size: 0x8, addend: 0x0, symName: __ZNSt3__117__compressed_pairImNS_9allocatorI4NodeEEE5firstB7v160006Ev, symObjAddr: 0x65F8, symBinAddr: 0x10000A2B8, symSize: 0x24 }
  - { offsetInCU: 0x194B0, offset: 0x194B0, size: 0x8, addend: 0x0, symName: __ZNSt3__122__compressed_pair_elemImLi0ELb0EE5__getB7v160006Ev, symObjAddr: 0x661C, symBinAddr: 0x10000A2DC, symSize: 0x14 }
  - { offsetInCU: 0x194D6, offset: 0x194D6, size: 0x8, addend: 0x0, symName: __ZN4NodeC2ERKS_, symObjAddr: 0x6630, symBinAddr: 0x10000A2F0, symSize: 0x40 }
  - { offsetInCU: 0x1950B, offset: 0x1950B, size: 0x8, addend: 0x0, symName: __ZN4NodeD2Ev, symObjAddr: 0x6670, symBinAddr: 0x10000A330, symSize: 0x2C }
  - { offsetInCU: 0x19537, offset: 0x19537, size: 0x8, addend: 0x0, symName: __ZNKSt3__15queueI4NodeNS_5dequeIS1_NS_9allocatorIS1_EEEEE5emptyB7v160006Ev, symObjAddr: 0x669C, symBinAddr: 0x10000A35C, symSize: 0x28 }
  - { offsetInCU: 0x1955D, offset: 0x1955D, size: 0x8, addend: 0x0, symName: __ZNKSt3__15dequeI4NodeNS_9allocatorIS1_EEE5emptyB7v160006Ev, symObjAddr: 0x66C4, symBinAddr: 0x10000A384, symSize: 0x30 }
  - { offsetInCU: 0x19583, offset: 0x19583, size: 0x8, addend: 0x0, symName: __ZNSt3__15queueI4NodeNS_5dequeIS1_NS_9allocatorIS1_EEEEE5frontB7v160006Ev, symObjAddr: 0x66F4, symBinAddr: 0x10000A3B4, symSize: 0x24 }
  - { offsetInCU: 0x195A9, offset: 0x195A9, size: 0x8, addend: 0x0, symName: __ZNSt3__15queueI4NodeNS_5dequeIS1_NS_9allocatorIS1_EEEEE3popB7v160006Ev, symObjAddr: 0x6718, symBinAddr: 0x10000A3D8, symSize: 0x24 }
  - { offsetInCU: 0x195CF, offset: 0x195CF, size: 0x8, addend: 0x0, symName: __ZNSt3__15dequeI4NodeNS_9allocatorIS1_EEE5frontEv, symObjAddr: 0x673C, symBinAddr: 0x10000A3FC, symSize: 0x58 }
  - { offsetInCU: 0x195F7, offset: 0x195F7, size: 0x8, addend: 0x0, symName: __ZNSt3__15dequeI4NodeNS_9allocatorIS1_EEE9pop_frontEv, symObjAddr: 0x6794, symBinAddr: 0x10000A454, symSize: 0xB4 }
  - { offsetInCU: 0x1962E, offset: 0x1962E, size: 0x8, addend: 0x0, symName: __ZNSt3__116allocator_traitsINS_9allocatorI4NodeEEE7destroyB7v160006IS2_vEEvRS3_PT_, symObjAddr: 0x6848, symBinAddr: 0x10000A508, symSize: 0x2C }
  - { offsetInCU: 0x1966B, offset: 0x1966B, size: 0x8, addend: 0x0, symName: __ZNSt3__15dequeI4NodeNS_9allocatorIS1_EEE26__maybe_remove_front_spareB7v160006Eb, symObjAddr: 0x6888, symBinAddr: 0x10000A548, symSize: 0xDC }
  - { offsetInCU: 0x196A0, offset: 0x196A0, size: 0x8, addend: 0x0, symName: __ZNSt3__19allocatorI4NodeE7destroyB7v160006EPS1_, symObjAddr: 0x6964, symBinAddr: 0x10000A624, symSize: 0x28 }
  - { offsetInCU: 0x196D4, offset: 0x196D4, size: 0x8, addend: 0x0, symName: __ZNKSt3__15dequeI4NodeNS_9allocatorIS1_EEE20__front_spare_blocksB7v160006Ev, symObjAddr: 0x698C, symBinAddr: 0x10000A64C, symSize: 0x2C }
  - { offsetInCU: 0x196FA, offset: 0x196FA, size: 0x8, addend: 0x0, symName: __ZNKSt3__111__wrap_iterIPNS_4pairIiiEEE4baseB7v160006Ev, symObjAddr: 0x6A00, symBinAddr: 0x10000A6C0, symSize: 0x18 }
  - { offsetInCU: 0x19720, offset: 0x19720, size: 0x8, addend: 0x0, symName: __ZNSt3__15queueI4NodeNS_5dequeIS1_NS_9allocatorIS1_EEEEEC1B7v160006ERKS6_, symObjAddr: 0x6A18, symBinAddr: 0x10000A6D8, symSize: 0x34 }
  - { offsetInCU: 0x19759, offset: 0x19759, size: 0x8, addend: 0x0, symName: __ZN4Node13same_state_asES_, symObjAddr: 0x6A4C, symBinAddr: 0x10000A70C, symSize: 0xB4 }
  - { offsetInCU: 0x1978E, offset: 0x1978E, size: 0x8, addend: 0x0, symName: __ZNSt3__15queueI4NodeNS_5dequeIS1_NS_9allocatorIS1_EEEEED1Ev, symObjAddr: 0x6B00, symBinAddr: 0x10000A7C0, symSize: 0x2C }
  - { offsetInCU: 0x197BB, offset: 0x197BB, size: 0x8, addend: 0x0, symName: __ZNSt3__15queueI4NodeNS_5dequeIS1_NS_9allocatorIS1_EEEEEC2B7v160006ERKS6_, symObjAddr: 0x6B2C, symBinAddr: 0x10000A7EC, symSize: 0x34 }
  - { offsetInCU: 0x197F4, offset: 0x197F4, size: 0x8, addend: 0x0, symName: __ZNSt3__15dequeI4NodeNS_9allocatorIS1_EEEC1ERKS4_, symObjAddr: 0x6B60, symBinAddr: 0x10000A820, symSize: 0x34 }
  - { offsetInCU: 0x1982F, offset: 0x1982F, size: 0x8, addend: 0x0, symName: __ZNSt3__15dequeI4NodeNS_9allocatorIS1_EEEC2ERKS4_, symObjAddr: 0x6B94, symBinAddr: 0x10000A854, symSize: 0xEC }
  - { offsetInCU: 0x1986A, offset: 0x1986A, size: 0x8, addend: 0x0, symName: __ZNSt3__116allocator_traitsINS_9allocatorI4NodeEEE37select_on_container_copy_constructionB7v160006IS3_vvEES3_RKS3_, symObjAddr: 0x6C80, symBinAddr: 0x10000A940, symSize: 0x10 }
  - { offsetInCU: 0x19899, offset: 0x19899, size: 0x8, addend: 0x0, symName: __ZNKSt3__15dequeI4NodeNS_9allocatorIS1_EEE7__allocB7v160006Ev, symObjAddr: 0x6C90, symBinAddr: 0x10000A950, symSize: 0x28 }
  - { offsetInCU: 0x198BF, offset: 0x198BF, size: 0x8, addend: 0x0, symName: __ZNSt3__19allocatorIP4NodeEC1B7v160006IS1_EERKNS0_IT_EE, symObjAddr: 0x6CB8, symBinAddr: 0x10000A978, symSize: 0x34 }
  - { offsetInCU: 0x198FC, offset: 0x198FC, size: 0x8, addend: 0x0, symName: __ZNSt3__114__split_bufferIP4NodeNS_9allocatorIS2_EEEC1ERKS4_, symObjAddr: 0x6CEC, symBinAddr: 0x10000A9AC, symSize: 0x34 }
  - { offsetInCU: 0x19936, offset: 0x19936, size: 0x8, addend: 0x0, symName: __ZNSt3__117__compressed_pairImNS_9allocatorI4NodeEEEC1B7v160006IiRNS1_IPS2_EEEEOT_OT0_, symObjAddr: 0x6D20, symBinAddr: 0x10000A9E0, symSize: 0x3C }
  - { offsetInCU: 0x19993, offset: 0x19993, size: 0x8, addend: 0x0, symName: __ZNSt3__15dequeI4NodeNS_9allocatorIS1_EEE8__appendINS_16__deque_iteratorIS1_PKS1_RS7_PKS8_lLl102EEEEEvT_SD_PNS_9enable_ifIXsr27__is_cpp17_forward_iteratorISD_EE5valueEvE4typeE, symObjAddr: 0x6D5C, symBinAddr: 0x10000AA1C, symSize: 0x248 }
  - { offsetInCU: 0x19A81, offset: 0x19A81, size: 0x8, addend: 0x0, symName: __ZNKSt3__15dequeI4NodeNS_9allocatorIS1_EEE5beginB7v160006Ev, symObjAddr: 0x6FA4, symBinAddr: 0x10000AC64, symSize: 0xB0 }
  - { offsetInCU: 0x19AB6, offset: 0x19AB6, size: 0x8, addend: 0x0, symName: __ZNKSt3__15dequeI4NodeNS_9allocatorIS1_EEE3endB7v160006Ev, symObjAddr: 0x7054, symBinAddr: 0x10000AD14, symSize: 0xC4 }
  - { offsetInCU: 0x19AFA, offset: 0x19AFA, size: 0x8, addend: 0x0, symName: __ZNSt3__114__split_bufferIP4NodeNS_9allocatorIS2_EEED1Ev, symObjAddr: 0x7118, symBinAddr: 0x10000ADD8, symSize: 0x2C }
  - { offsetInCU: 0x19B26, offset: 0x19B26, size: 0x8, addend: 0x0, symName: __ZNKSt3__117__compressed_pairImNS_9allocatorI4NodeEEE6secondB7v160006Ev, symObjAddr: 0x7144, symBinAddr: 0x10000AE04, symSize: 0x24 }
  - { offsetInCU: 0x19B4C, offset: 0x19B4C, size: 0x8, addend: 0x0, symName: __ZNKSt3__122__compressed_pair_elemINS_9allocatorI4NodeEELi1ELb1EE5__getB7v160006Ev, symObjAddr: 0x7168, symBinAddr: 0x10000AE28, symSize: 0x14 }
  - { offsetInCU: 0x19B72, offset: 0x19B72, size: 0x8, addend: 0x0, symName: __ZNSt3__19allocatorIP4NodeEC2B7v160006IS1_EERKNS0_IT_EE, symObjAddr: 0x717C, symBinAddr: 0x10000AE3C, symSize: 0x30 }
  - { offsetInCU: 0x19BAF, offset: 0x19BAF, size: 0x8, addend: 0x0, symName: __ZNSt3__114__split_bufferIP4NodeNS_9allocatorIS2_EEEC2ERKS4_, symObjAddr: 0x71AC, symBinAddr: 0x10000AE6C, symSize: 0x4C }
  - { offsetInCU: 0x19BE9, offset: 0x19BE9, size: 0x8, addend: 0x0, symName: __ZNSt3__117__compressed_pairIPP4NodeNS_9allocatorIS2_EEEC1B7v160006IDnRKS5_EEOT_OT0_, symObjAddr: 0x71F8, symBinAddr: 0x10000AEB8, symSize: 0x3C }
  - { offsetInCU: 0x19C41, offset: 0x19C41, size: 0x8, addend: 0x0, symName: __ZNSt3__117__compressed_pairIPP4NodeNS_9allocatorIS2_EEEC2B7v160006IDnRKS5_EEOT_OT0_, symObjAddr: 0x7234, symBinAddr: 0x10000AEF4, symSize: 0x44 }
  - { offsetInCU: 0x19C99, offset: 0x19C99, size: 0x8, addend: 0x0, symName: __ZNSt3__122__compressed_pair_elemINS_9allocatorIP4NodeEELi1ELb1EEC2B7v160006IRKS4_vEEOT_, symObjAddr: 0x7278, symBinAddr: 0x10000AF38, symSize: 0x18 }
  - { offsetInCU: 0x19CDB, offset: 0x19CDB, size: 0x8, addend: 0x0, symName: __ZNSt3__117__compressed_pairImNS_9allocatorI4NodeEEEC2B7v160006IiRNS1_IPS2_EEEEOT_OT0_, symObjAddr: 0x7290, symBinAddr: 0x10000AF50, symSize: 0x44 }
  - { offsetInCU: 0x19D33, offset: 0x19D33, size: 0x8, addend: 0x0, symName: __ZNSt3__122__compressed_pair_elemINS_9allocatorI4NodeEELi1ELb1EEC2B7v160006IRNS1_IPS2_EEvEEOT_, symObjAddr: 0x72D4, symBinAddr: 0x10000AF94, symSize: 0x34 }
  - { offsetInCU: 0x19D75, offset: 0x19D75, size: 0x8, addend: 0x0, symName: __ZNSt3__19allocatorI4NodeEC2B7v160006IPS1_EERKNS0_IT_EE, symObjAddr: 0x7308, symBinAddr: 0x10000AFC8, symSize: 0x30 }
  - { offsetInCU: 0x19DB2, offset: 0x19DB2, size: 0x8, addend: 0x0, symName: __ZNSt3__15dequeI4NodeNS_9allocatorIS1_EEE19__add_back_capacityEm, symObjAddr: 0x7384, symBinAddr: 0x10000B044, symSize: 0x5BC }
  - { offsetInCU: 0x19EB3, offset: 0x19EB3, size: 0x8, addend: 0x0, symName: __ZNKSt3__116__deque_iteratorI4NodePS1_RS1_PS2_lLl102EEplB7v160006El, symObjAddr: 0x7940, symBinAddr: 0x10000B600, symSize: 0x40 }
  - { offsetInCU: 0x19F1A, offset: 0x19F1A, size: 0x8, addend: 0x0, symName: __ZNSt3__15dequeI4NodeNS_9allocatorIS1_EEE13__deque_rangeC1B7v160006ENS_16__deque_iteratorIS1_PS1_RS1_PS7_lLl102EEESA_, symObjAddr: 0x7980, symBinAddr: 0x10000B640, symSize: 0x4C }
  - { offsetInCU: 0x19F62, offset: 0x19F62, size: 0x8, addend: 0x0, symName: __ZNKSt3__15dequeI4NodeNS_9allocatorIS1_EEE13__deque_range5beginB7v160006Ev, symObjAddr: 0x79CC, symBinAddr: 0x10000B68C, symSize: 0x24 }
  - { offsetInCU: 0x19F88, offset: 0x19F88, size: 0x8, addend: 0x0, symName: __ZNKSt3__15dequeI4NodeNS_9allocatorIS1_EEE13__deque_range3endB7v160006Ev, symObjAddr: 0x79F0, symBinAddr: 0x10000B6B0, symSize: 0x50 }
  - { offsetInCU: 0x19FAE, offset: 0x19FAE, size: 0x8, addend: 0x0, symName: __ZNKSt3__15dequeI4NodeNS_9allocatorIS1_EEE13__deque_rangedeB7v160006Ev, symObjAddr: 0x7A74, symBinAddr: 0x10000B734, symSize: 0x7C }
  - { offsetInCU: 0x19FE8, offset: 0x19FE8, size: 0x8, addend: 0x0, symName: __ZNSt3__15dequeI4NodeNS_9allocatorIS1_EEE21_ConstructTransactionC1B7v160006EPS4_RNS4_19__deque_block_rangeE, symObjAddr: 0x7AF0, symBinAddr: 0x10000B7B0, symSize: 0x3C }
  - { offsetInCU: 0x1A030, offset: 0x1A030, size: 0x8, addend: 0x0, symName: __ZNKSt3__116__deque_iteratorI4NodePKS1_RS2_PKS3_lLl102EEdeB7v160006Ev, symObjAddr: 0x7B2C, symBinAddr: 0x10000B7EC, symSize: 0x18 }
  - { offsetInCU: 0x1A056, offset: 0x1A056, size: 0x8, addend: 0x0, symName: __ZNSt3__116__deque_iteratorI4NodePKS1_RS2_PKS3_lLl102EEppB7v160006Ev, symObjAddr: 0x7B44, symBinAddr: 0x10000B804, symSize: 0x70 }
  - { offsetInCU: 0x1A07C, offset: 0x1A07C, size: 0x8, addend: 0x0, symName: __ZNSt3__15dequeI4NodeNS_9allocatorIS1_EEE21_ConstructTransactionD1B7v160006Ev, symObjAddr: 0x7BB4, symBinAddr: 0x10000B874, symSize: 0x2C }
  - { offsetInCU: 0x1A0A6, offset: 0x1A0A6, size: 0x8, addend: 0x0, symName: __ZNSt3__15dequeI4NodeNS_9allocatorIS1_EEE13__deque_rangeppB7v160006Ev, symObjAddr: 0x7BE0, symBinAddr: 0x10000B8A0, symSize: 0x64 }
  - { offsetInCU: 0x1A0CC, offset: 0x1A0CC, size: 0x8, addend: 0x0, symName: __ZNSt3__15dequeI4NodeNS_9allocatorIS1_EEE18__recommend_blocksB7v160006Em, symObjAddr: 0x7D90, symBinAddr: 0x10000BA50, symSize: 0x40 }
  - { offsetInCU: 0x1A0F0, offset: 0x1A0F0, size: 0x8, addend: 0x0, symName: __ZNSt3__114__split_bufferIP4NodeRNS_9allocatorIS2_EEE5beginB7v160006Ev, symObjAddr: 0x7DD0, symBinAddr: 0x10000BA90, symSize: 0x18 }
  - { offsetInCU: 0x1A116, offset: 0x1A116, size: 0x8, addend: 0x0, symName: __ZNSt3__114__split_bufferIP4NodeRNS_9allocatorIS2_EEE3endB7v160006Ev, symObjAddr: 0x7DE8, symBinAddr: 0x10000BAA8, symSize: 0x18 }
  - { offsetInCU: 0x1A13C, offset: 0x1A13C, size: 0x8, addend: 0x0, symName: __ZNSt3__114__split_bufferIP4NodeRNS_9allocatorIS2_EEE9push_backB7v160006ERKS2_, symObjAddr: 0x7E00, symBinAddr: 0x10000BAC0, symSize: 0x260 }
  - { offsetInCU: 0x1A1B4, offset: 0x1A1B4, size: 0x8, addend: 0x0, symName: __ZNSt3__116__deque_iteratorI4NodePS1_RS1_PS2_lLl102EEpLB7v160006El, symObjAddr: 0x8060, symBinAddr: 0x10000BD20, symSize: 0x120 }
  - { offsetInCU: 0x1A206, offset: 0x1A206, size: 0x8, addend: 0x0, symName: __ZNSt3__15dequeI4NodeNS_9allocatorIS1_EEE13__deque_rangeC2B7v160006ENS_16__deque_iteratorIS1_PS1_RS1_PS7_lLl102EEESA_, symObjAddr: 0x8180, symBinAddr: 0x10000BE40, symSize: 0x34 }
  - { offsetInCU: 0x1A24E, offset: 0x1A24E, size: 0x8, addend: 0x0, symName: __ZNSt3__15dequeI4NodeNS_9allocatorIS1_EEE19__deque_block_rangeC1B7v160006EPS1_S6_, symObjAddr: 0x8214, symBinAddr: 0x10000BED4, symSize: 0x3C }
  - { offsetInCU: 0x1A296, offset: 0x1A296, size: 0x8, addend: 0x0, symName: __ZNSt3__15dequeI4NodeNS_9allocatorIS1_EEE19__deque_block_rangeC2B7v160006EPS1_S6_, symObjAddr: 0x8250, symBinAddr: 0x10000BF10, symSize: 0x2C }
  - { offsetInCU: 0x1A2DE, offset: 0x1A2DE, size: 0x8, addend: 0x0, symName: __ZNSt3__15dequeI4NodeNS_9allocatorIS1_EEE21_ConstructTransactionC2B7v160006EPS4_RNS4_19__deque_block_rangeE, symObjAddr: 0x827C, symBinAddr: 0x10000BF3C, symSize: 0x48 }
  - { offsetInCU: 0x1A326, offset: 0x1A326, size: 0x8, addend: 0x0, symName: __ZNSt3__15dequeI4NodeNS_9allocatorIS1_EEE21_ConstructTransactionD2B7v160006Ev, symObjAddr: 0x82C4, symBinAddr: 0x10000BF84, symSize: 0x5C }
  - { offsetInCU: 0x1A350, offset: 0x1A350, size: 0x8, addend: 0x0, symName: __ZNKSt3__114__split_bufferIP4NodeNS_9allocatorIS2_EEE5beginB7v160006Ev, symObjAddr: 0x8320, symBinAddr: 0x10000BFE0, symSize: 0x18 }
  - { offsetInCU: 0x1A376, offset: 0x1A376, size: 0x8, addend: 0x0, symName: __ZNSt3__116__deque_iteratorI4NodePKS1_RS2_PKS3_lLl102EEC1B7v160006ES6_S3_, symObjAddr: 0x8338, symBinAddr: 0x10000BFF8, symSize: 0x3C }
  - { offsetInCU: 0x1A3BE, offset: 0x1A3BE, size: 0x8, addend: 0x0, symName: __ZNSt3__116__deque_iteratorI4NodePKS1_RS2_PKS3_lLl102EEC2B7v160006ES6_S3_, symObjAddr: 0x8374, symBinAddr: 0x10000C034, symSize: 0x2C }
  - { offsetInCU: 0x1A406, offset: 0x1A406, size: 0x8, addend: 0x0, symName: __ZNSt3__114__split_bufferIP4NodeNS_9allocatorIS2_EEED2Ev, symObjAddr: 0x83A0, symBinAddr: 0x10000C060, symSize: 0x80 }
  - { offsetInCU: 0x1A432, offset: 0x1A432, size: 0x8, addend: 0x0, symName: __ZNSt3__114__split_bufferIP4NodeNS_9allocatorIS2_EEE5clearB7v160006Ev, symObjAddr: 0x8420, symBinAddr: 0x10000C0E0, symSize: 0x28 }
  - { offsetInCU: 0x1A458, offset: 0x1A458, size: 0x8, addend: 0x0, symName: __ZNSt3__114__split_bufferIP4NodeNS_9allocatorIS2_EEE17__destruct_at_endB7v160006EPS2_, symObjAddr: 0x8448, symBinAddr: 0x10000C108, symSize: 0x2C }
  - { offsetInCU: 0x1A48C, offset: 0x1A48C, size: 0x8, addend: 0x0, symName: __ZNSt3__114__split_bufferIP4NodeNS_9allocatorIS2_EEE17__destruct_at_endB7v160006EPS2_NS_17integral_constantIbLb0EEE, symObjAddr: 0x8474, symBinAddr: 0x10000C134, symSize: 0x80 }
  - { offsetInCU: 0x1A4CC, offset: 0x1A4CC, size: 0x8, addend: 0x0, symName: __ZNKSt3__16vectorIiNS_9allocatorIiEEE5beginB7v160006Ev, symObjAddr: 0x85E0, symBinAddr: 0x10000C2A0, symSize: 0x30 }
  - { offsetInCU: 0x1A4F4, offset: 0x1A4F4, size: 0x8, addend: 0x0, symName: __ZNKSt3__16vectorIiNS_9allocatorIiEEE3endB7v160006Ev, symObjAddr: 0x8610, symBinAddr: 0x10000C2D0, symSize: 0x30 }
  - { offsetInCU: 0x1A526, offset: 0x1A526, size: 0x8, addend: 0x0, symName: __ZNKSt3__110__equal_toclB7v160006IiiEEbRKT_RKT0_, symObjAddr: 0x8724, symBinAddr: 0x10000C3E4, symSize: 0x34 }
  - { offsetInCU: 0x1A57A, offset: 0x1A57A, size: 0x8, addend: 0x0, symName: __ZNKSt3__111__wrap_iterIPKiEdeB7v160006Ev, symObjAddr: 0x8758, symBinAddr: 0x10000C418, symSize: 0x18 }
  - { offsetInCU: 0x1A5A0, offset: 0x1A5A0, size: 0x8, addend: 0x0, symName: __ZNSt3__111__wrap_iterIPKiEppB7v160006Ev, symObjAddr: 0x8770, symBinAddr: 0x10000C430, symSize: 0x20 }
  - { offsetInCU: 0x1A5C6, offset: 0x1A5C6, size: 0x8, addend: 0x0, symName: __ZNKSt3__111__wrap_iterIPKiE4baseB7v160006Ev, symObjAddr: 0x87D8, symBinAddr: 0x10000C498, symSize: 0x18 }
  - { offsetInCU: 0x1A5EC, offset: 0x1A5EC, size: 0x8, addend: 0x0, symName: __ZNKSt3__16vectorIiNS_9allocatorIiEEE11__make_iterB7v160006EPKi, symObjAddr: 0x87F0, symBinAddr: 0x10000C4B0, symSize: 0x34 }
  - { offsetInCU: 0x1A621, offset: 0x1A621, size: 0x8, addend: 0x0, symName: __ZNSt3__111__wrap_iterIPKiEC1B7v160006EPKvS2_, symObjAddr: 0x8824, symBinAddr: 0x10000C4E4, symSize: 0x3C }
  - { offsetInCU: 0x1A667, offset: 0x1A667, size: 0x8, addend: 0x0, symName: __ZNSt3__111__wrap_iterIPKiEC2B7v160006EPKvS2_, symObjAddr: 0x8860, symBinAddr: 0x10000C520, symSize: 0x24 }
  - { offsetInCU: 0x1A6AD, offset: 0x1A6AD, size: 0x8, addend: 0x0, symName: __ZNSt3__15queueI4NodeNS_5dequeIS1_NS_9allocatorIS1_EEEEED2Ev, symObjAddr: 0x8884, symBinAddr: 0x10000C544, symSize: 0x2C }
  - { offsetInCU: 0x1A6DA, offset: 0x1A6DA, size: 0x8, addend: 0x0, symName: __ZNSt3__15dequeI4NodeNS_9allocatorIS1_EEED1B7v160006Ev, symObjAddr: 0x88B0, symBinAddr: 0x10000C570, symSize: 0x2C }
  - { offsetInCU: 0x1A704, offset: 0x1A704, size: 0x8, addend: 0x0, symName: __ZNSt3__15dequeI4NodeNS_9allocatorIS1_EEED2B7v160006Ev, symObjAddr: 0x88DC, symBinAddr: 0x10000C59C, symSize: 0x9C }
  - { offsetInCU: 0x1A75A, offset: 0x1A75A, size: 0x8, addend: 0x0, symName: __ZNSt3__15dequeI4NodeNS_9allocatorIS1_EEE5clearEv, symObjAddr: 0x8978, symBinAddr: 0x10000C638, symSize: 0x15C }
  - { offsetInCU: 0x1A7B5, offset: 0x1A7B5, size: 0x8, addend: 0x0, symName: __ZNSt3__15dequeI4NodeNS_9allocatorIS1_EEE5beginB7v160006Ev, symObjAddr: 0x8AD4, symBinAddr: 0x10000C794, symSize: 0xB0 }
  - { offsetInCU: 0x1A7EA, offset: 0x1A7EA, size: 0x8, addend: 0x0, symName: __ZNSt3__116__deque_iteratorI4NodePS1_RS1_PS2_lLl102EEppB7v160006Ev, symObjAddr: 0x8BB8, symBinAddr: 0x10000C878, symSize: 0x70 }
  - { offsetInCU: 0x1A810, offset: 0x1A810, size: 0x8, addend: 0x0, symName: __ZN8FrontierD2Ev, symObjAddr: 0x8C28, symBinAddr: 0x10000C8E8, symSize: 0x2C }
  - { offsetInCU: 0x1A83C, offset: 0x1A83C, size: 0x8, addend: 0x0, symName: __ZNSt3__16vectorIiNS_9allocatorIiEEEC2ERKS3_, symObjAddr: 0x8C54, symBinAddr: 0x10000C914, symSize: 0x114 }
  - { offsetInCU: 0x1A89B, offset: 0x1A89B, size: 0x8, addend: 0x0, symName: __ZNSt3__116allocator_traitsINS_9allocatorIiEEE37select_on_container_copy_constructionB7v160006IS2_vvEES2_RKS2_, symObjAddr: 0x8D68, symBinAddr: 0x10000CA28, symSize: 0x10 }
  - { offsetInCU: 0x1A8D0, offset: 0x1A8D0, size: 0x8, addend: 0x0, symName: __ZNSt3__117__compressed_pairIPiNS_9allocatorIiEEEC1B7v160006IDnS3_EEOT_OT0_, symObjAddr: 0x8D78, symBinAddr: 0x10000CA38, symSize: 0x3C }
  - { offsetInCU: 0x1A928, offset: 0x1A928, size: 0x8, addend: 0x0, symName: __ZNSt3__16vectorIiNS_9allocatorIiEEE16__destroy_vectorC1ERS3_, symObjAddr: 0x8DF4, symBinAddr: 0x10000CAB4, symSize: 0x34 }
  - { offsetInCU: 0x1A961, offset: 0x1A961, size: 0x8, addend: 0x0, symName: __ZNSt3__128__exception_guard_exceptionsINS_6vectorIiNS_9allocatorIiEEE16__destroy_vectorEE10__completeB7v160006Ev, symObjAddr: 0x8E38, symBinAddr: 0x10000CAF8, symSize: 0x1C }
  - { offsetInCU: 0x1A987, offset: 0x1A987, size: 0x8, addend: 0x0, symName: __ZNSt3__128__exception_guard_exceptionsINS_6vectorIiNS_9allocatorIiEEE16__destroy_vectorEED1B7v160006Ev, symObjAddr: 0x8E54, symBinAddr: 0x10000CB14, symSize: 0x2C }
  - { offsetInCU: 0x1A9B1, offset: 0x1A9B1, size: 0x8, addend: 0x0, symName: __ZNSt3__117__compressed_pairIPiNS_9allocatorIiEEEC2B7v160006IDnS3_EEOT_OT0_, symObjAddr: 0x8E80, symBinAddr: 0x10000CB40, symSize: 0x44 }
  - { offsetInCU: 0x1AA09, offset: 0x1AA09, size: 0x8, addend: 0x0, symName: __ZNSt3__122__compressed_pair_elemIPiLi0ELb0EEC2B7v160006IDnvEEOT_, symObjAddr: 0x8EC4, symBinAddr: 0x10000CB84, symSize: 0x1C }
  - { offsetInCU: 0x1AA4B, offset: 0x1AA4B, size: 0x8, addend: 0x0, symName: __ZNSt3__122__compressed_pair_elemINS_9allocatorIiEELi1ELb1EEC2B7v160006IS2_vEEOT_, symObjAddr: 0x8EE0, symBinAddr: 0x10000CBA0, symSize: 0x18 }
  - { offsetInCU: 0x1AA8D, offset: 0x1AA8D, size: 0x8, addend: 0x0, symName: __ZNSt3__128__exception_guard_exceptionsINS_6vectorIiNS_9allocatorIiEEE16__destroy_vectorEEC1B7v160006ES5_, symObjAddr: 0x8EF8, symBinAddr: 0x10000CBB8, symSize: 0x34 }
  - { offsetInCU: 0x1AAC5, offset: 0x1AAC5, size: 0x8, addend: 0x0, symName: __ZNSt3__128__exception_guard_exceptionsINS_6vectorIiNS_9allocatorIiEEE16__destroy_vectorEEC2B7v160006ES5_, symObjAddr: 0x8F2C, symBinAddr: 0x10000CBEC, symSize: 0x24 }
  - { offsetInCU: 0x1AAFD, offset: 0x1AAFD, size: 0x8, addend: 0x0, symName: __ZNSt3__16vectorIiNS_9allocatorIiEEE16__destroy_vectorC2ERS3_, symObjAddr: 0x8F50, symBinAddr: 0x10000CC10, symSize: 0x20 }
  - { offsetInCU: 0x1AB36, offset: 0x1AB36, size: 0x8, addend: 0x0, symName: __ZNSt3__128__exception_guard_exceptionsINS_6vectorIiNS_9allocatorIiEEE16__destroy_vectorEED2B7v160006Ev, symObjAddr: 0x8F70, symBinAddr: 0x10000CC30, symSize: 0x50 }
  - { offsetInCU: 0x1AB60, offset: 0x1AB60, size: 0x8, addend: 0x0, symName: __ZNSt3__16vectorIiNS_9allocatorIiEEE16__destroy_vectorclB7v160006Ev, symObjAddr: 0x8FC0, symBinAddr: 0x10000CC80, symSize: 0x9C }
  - { offsetInCU: 0x1AB86, offset: 0x1AB86, size: 0x8, addend: 0x0, symName: __ZNKSt3__16vectorIiNS_9allocatorIiEEE17__annotate_deleteB7v160006Ev, symObjAddr: 0x905C, symBinAddr: 0x10000CD1C, symSize: 0xB8 }
  - { offsetInCU: 0x1ABAC, offset: 0x1ABAC, size: 0x8, addend: 0x0, symName: __ZNSt3__16vectorIiNS_9allocatorIiEEEC2B7v160006Ev, symObjAddr: 0x9124, symBinAddr: 0x10000CDE4, symSize: 0x54 }
  - { offsetInCU: 0x1ABD6, offset: 0x1ABD6, size: 0x8, addend: 0x0, symName: __ZNSt3__117__compressed_pairIPiNS_9allocatorIiEEEC1B7v160006IDnNS_18__default_init_tagEEEOT_OT0_, symObjAddr: 0x9178, symBinAddr: 0x10000CE38, symSize: 0x3C }
  - { offsetInCU: 0x1AC2E, offset: 0x1AC2E, size: 0x8, addend: 0x0, symName: __ZNSt3__117__compressed_pairIPiNS_9allocatorIiEEEC2B7v160006IDnNS_18__default_init_tagEEEOT_OT0_, symObjAddr: 0x91B4, symBinAddr: 0x10000CE74, symSize: 0x40 }
  - { offsetInCU: 0x1AC86, offset: 0x1AC86, size: 0x8, addend: 0x0, symName: __ZNSt3__122__compressed_pair_elemINS_9allocatorIiEELi1ELb1EEC2B7v160006ENS_18__default_init_tagE, symObjAddr: 0x91F4, symBinAddr: 0x10000CEB4, symSize: 0x2C }
  - { offsetInCU: 0x1ACBA, offset: 0x1ACBA, size: 0x8, addend: 0x0, symName: __ZNSt3__19allocatorIiEC2B7v160006Ev, symObjAddr: 0x9220, symBinAddr: 0x10000CEE0, symSize: 0x2C }
  - { offsetInCU: 0x1ACE4, offset: 0x1ACE4, size: 0x8, addend: 0x0, symName: __ZNSt3__116__non_trivial_ifILb1ENS_9allocatorIiEEEC2B7v160006Ev, symObjAddr: 0x924C, symBinAddr: 0x10000CF0C, symSize: 0x14 }
  - { offsetInCU: 0x1AD0E, offset: 0x1AD0E, size: 0x8, addend: 0x0, symName: __ZNSt3__16vectorIiNS_9allocatorIiEEED2B7v160006Ev, symObjAddr: 0x9260, symBinAddr: 0x10000CF20, symSize: 0x44 }
  - { offsetInCU: 0x1AD38, offset: 0x1AD38, size: 0x8, addend: 0x0, symName: __ZNSt3__111char_traitsIcE6lengthEPKc, symObjAddr: 0x9490, symBinAddr: 0x10000D150, symSize: 0x34 }
  - { offsetInCU: 0x1AD79, offset: 0x1AD79, size: 0x8, addend: 0x0, symName: __ZNKSt3__113basic_ostreamIcNS_11char_traitsIcEEE6sentrycvbB7v160006Ev, symObjAddr: 0x94C4, symBinAddr: 0x10000D184, symSize: 0x1C }
  - { offsetInCU: 0x1AD9F, offset: 0x1AD9F, size: 0x8, addend: 0x0, symName: __ZNSt3__119ostreambuf_iteratorIcNS_11char_traitsIcEEEC1B7v160006ERNS_13basic_ostreamIcS2_EE, symObjAddr: 0x9720, symBinAddr: 0x10000D3E0, symSize: 0x34 }
  - { offsetInCU: 0x1ADD7, offset: 0x1ADD7, size: 0x8, addend: 0x0, symName: __ZNKSt3__18ios_base5flagsB7v160006Ev, symObjAddr: 0x9754, symBinAddr: 0x10000D414, symSize: 0x18 }
  - { offsetInCU: 0x1ADFF, offset: 0x1ADFF, size: 0x8, addend: 0x0, symName: __ZNKSt3__19basic_iosIcNS_11char_traitsIcEEE4fillB7v160006Ev, symObjAddr: 0x976C, symBinAddr: 0x10000D42C, symSize: 0x64 }
  - { offsetInCU: 0x1AE27, offset: 0x1AE27, size: 0x8, addend: 0x0, symName: __ZNKSt3__119ostreambuf_iteratorIcNS_11char_traitsIcEEE6failedB7v160006Ev, symObjAddr: 0x97D0, symBinAddr: 0x10000D490, symSize: 0x24 }
  - { offsetInCU: 0x1AE4D, offset: 0x1AE4D, size: 0x8, addend: 0x0, symName: __ZNSt3__19basic_iosIcNS_11char_traitsIcEEE8setstateB7v160006Ej, symObjAddr: 0x97F4, symBinAddr: 0x10000D4B4, symSize: 0x2C }
  - { offsetInCU: 0x1AE82, offset: 0x1AE82, size: 0x8, addend: 0x0, symName: __ZNKSt3__18ios_base5widthB7v160006Ev, symObjAddr: 0x9820, symBinAddr: 0x10000D4E0, symSize: 0x18 }
  - { offsetInCU: 0x1AEAA, offset: 0x1AEAA, size: 0x8, addend: 0x0, symName: __ZNSt3__115basic_streambufIcNS_11char_traitsIcEEE5sputnB7v160006EPKcl, symObjAddr: 0x9838, symBinAddr: 0x10000D4F8, symSize: 0x3C }
  - { offsetInCU: 0x1AEEC, offset: 0x1AEEC, size: 0x8, addend: 0x0, symName: __ZNSt3__112basic_stringIcNS_11char_traitsIcEENS_9allocatorIcEEEC1B7v160006Emc, symObjAddr: 0x9874, symBinAddr: 0x10000D534, symSize: 0x3C }
  - { offsetInCU: 0x1AF34, offset: 0x1AF34, size: 0x8, addend: 0x0, symName: __ZNSt3__112basic_stringIcNS_11char_traitsIcEENS_9allocatorIcEEE4dataB7v160006Ev, symObjAddr: 0x98B0, symBinAddr: 0x10000D570, symSize: 0x28 }
  - { offsetInCU: 0x1AF5A, offset: 0x1AF5A, size: 0x8, addend: 0x0, symName: __ZNSt3__18ios_base5widthB7v160006El, symObjAddr: 0x98D8, symBinAddr: 0x10000D598, symSize: 0x2C }
  - { offsetInCU: 0x1AFA0, offset: 0x1AFA0, size: 0x8, addend: 0x0, symName: __ZNSt3__112basic_stringIcNS_11char_traitsIcEENS_9allocatorIcEEEC2B7v160006Emc, symObjAddr: 0x9904, symBinAddr: 0x10000D5C4, symSize: 0x54 }
  - { offsetInCU: 0x1AFE8, offset: 0x1AFE8, size: 0x8, addend: 0x0, symName: __ZNSt3__117__compressed_pairINS_12basic_stringIcNS_11char_traitsIcEENS_9allocatorIcEEE5__repES5_EC1B7v160006INS_18__default_init_tagESA_EEOT_OT0_, symObjAddr: 0x9958, symBinAddr: 0x10000D618, symSize: 0x3C }
  - { offsetInCU: 0x1B040, offset: 0x1B040, size: 0x8, addend: 0x0, symName: __ZNSt3__117__compressed_pairINS_12basic_stringIcNS_11char_traitsIcEENS_9allocatorIcEEE5__repES5_EC2B7v160006INS_18__default_init_tagESA_EEOT_OT0_, symObjAddr: 0x99A4, symBinAddr: 0x10000D664, symSize: 0x3C }
  - { offsetInCU: 0x1B098, offset: 0x1B098, size: 0x8, addend: 0x0, symName: __ZNSt3__122__compressed_pair_elemINS_12basic_stringIcNS_11char_traitsIcEENS_9allocatorIcEEE5__repELi0ELb0EEC2B7v160006ENS_18__default_init_tagE, symObjAddr: 0x99E0, symBinAddr: 0x10000D6A0, symSize: 0x14 }
  - { offsetInCU: 0x1B0CC, offset: 0x1B0CC, size: 0x8, addend: 0x0, symName: __ZNSt3__122__compressed_pair_elemINS_9allocatorIcEELi1ELb1EEC2B7v160006ENS_18__default_init_tagE, symObjAddr: 0x99F4, symBinAddr: 0x10000D6B4, symSize: 0x2C }
  - { offsetInCU: 0x1B100, offset: 0x1B100, size: 0x8, addend: 0x0, symName: __ZNSt3__19allocatorIcEC2B7v160006Ev, symObjAddr: 0x9A20, symBinAddr: 0x10000D6E0, symSize: 0x2C }
  - { offsetInCU: 0x1B12A, offset: 0x1B12A, size: 0x8, addend: 0x0, symName: __ZNSt3__116__non_trivial_ifILb1ENS_9allocatorIcEEEC2B7v160006Ev, symObjAddr: 0x9A4C, symBinAddr: 0x10000D70C, symSize: 0x14 }
  - { offsetInCU: 0x1B154, offset: 0x1B154, size: 0x8, addend: 0x0, symName: __ZNSt3__112basic_stringIcNS_11char_traitsIcEENS_9allocatorIcEEE13__get_pointerB7v160006Ev, symObjAddr: 0x9A74, symBinAddr: 0x10000D734, symSize: 0x54 }
  - { offsetInCU: 0x1B17A, offset: 0x1B17A, size: 0x8, addend: 0x0, symName: __ZNKSt3__112basic_stringIcNS_11char_traitsIcEENS_9allocatorIcEEE9__is_longB7v160006Ev, symObjAddr: 0x9AC8, symBinAddr: 0x10000D788, symSize: 0x38 }
  - { offsetInCU: 0x1B1A0, offset: 0x1B1A0, size: 0x8, addend: 0x0, symName: __ZNSt3__112basic_stringIcNS_11char_traitsIcEENS_9allocatorIcEEE18__get_long_pointerB7v160006Ev, symObjAddr: 0x9B00, symBinAddr: 0x10000D7C0, symSize: 0x28 }
  - { offsetInCU: 0x1B1C6, offset: 0x1B1C6, size: 0x8, addend: 0x0, symName: __ZNSt3__112basic_stringIcNS_11char_traitsIcEENS_9allocatorIcEEE19__get_short_pointerB7v160006Ev, symObjAddr: 0x9B28, symBinAddr: 0x10000D7E8, symSize: 0x28 }
  - { offsetInCU: 0x1B1EC, offset: 0x1B1EC, size: 0x8, addend: 0x0, symName: __ZNKSt3__117__compressed_pairINS_12basic_stringIcNS_11char_traitsIcEENS_9allocatorIcEEE5__repES5_E5firstB7v160006Ev, symObjAddr: 0x9B50, symBinAddr: 0x10000D810, symSize: 0x24 }
  - { offsetInCU: 0x1B212, offset: 0x1B212, size: 0x8, addend: 0x0, symName: __ZNKSt3__122__compressed_pair_elemINS_12basic_stringIcNS_11char_traitsIcEENS_9allocatorIcEEE5__repELi0ELb0EE5__getB7v160006Ev, symObjAddr: 0x9B74, symBinAddr: 0x10000D834, symSize: 0x14 }
  - { offsetInCU: 0x1B238, offset: 0x1B238, size: 0x8, addend: 0x0, symName: __ZNSt3__117__compressed_pairINS_12basic_stringIcNS_11char_traitsIcEENS_9allocatorIcEEE5__repES5_E5firstB7v160006Ev, symObjAddr: 0x9B88, symBinAddr: 0x10000D848, symSize: 0x24 }
  - { offsetInCU: 0x1B25E, offset: 0x1B25E, size: 0x8, addend: 0x0, symName: __ZNSt3__122__compressed_pair_elemINS_12basic_stringIcNS_11char_traitsIcEENS_9allocatorIcEEE5__repELi0ELb0EE5__getB7v160006Ev, symObjAddr: 0x9BAC, symBinAddr: 0x10000D86C, symSize: 0x14 }
  - { offsetInCU: 0x1B284, offset: 0x1B284, size: 0x8, addend: 0x0, symName: __ZNSt3__114pointer_traitsIPcE10pointer_toB7v160006ERc, symObjAddr: 0x9BC0, symBinAddr: 0x10000D880, symSize: 0x14 }
  - { offsetInCU: 0x1B2A7, offset: 0x1B2A7, size: 0x8, addend: 0x0, symName: __ZNSt3__119ostreambuf_iteratorIcNS_11char_traitsIcEEEC2B7v160006ERNS_13basic_ostreamIcS2_EE, symObjAddr: 0x9BD4, symBinAddr: 0x10000D894, symSize: 0x54 }
  - { offsetInCU: 0x1B2DF, offset: 0x1B2DF, size: 0x8, addend: 0x0, symName: __ZNKSt3__19basic_iosIcNS_11char_traitsIcEEE5rdbufB7v160006Ev, symObjAddr: 0x9C28, symBinAddr: 0x10000D8E8, symSize: 0x24 }
  - { offsetInCU: 0x1B307, offset: 0x1B307, size: 0x8, addend: 0x0, symName: __ZNKSt3__18ios_base5rdbufB7v160006Ev, symObjAddr: 0x9C4C, symBinAddr: 0x10000D90C, symSize: 0x18 }
  - { offsetInCU: 0x1B32D, offset: 0x1B32D, size: 0x8, addend: 0x0, symName: __ZNSt3__111char_traitsIcE11eq_int_typeEii, symObjAddr: 0x9C64, symBinAddr: 0x10000D924, symSize: 0x28 }
  - { offsetInCU: 0x1B35E, offset: 0x1B35E, size: 0x8, addend: 0x0, symName: __ZNSt3__111char_traitsIcE3eofEv, symObjAddr: 0x9C8C, symBinAddr: 0x10000D94C, symSize: 0x8 }
  - { offsetInCU: 0x1B372, offset: 0x1B372, size: 0x8, addend: 0x0, symName: __ZNKSt3__19basic_iosIcNS_11char_traitsIcEEE5widenB7v160006Ec, symObjAddr: 0x9C94, symBinAddr: 0x10000D954, symSize: 0x84 }
  - { offsetInCU: 0x1B3E0, offset: 0x1B3E0, size: 0x8, addend: 0x0, symName: __ZNKSt3__15ctypeIcE5widenB7v160006Ec, symObjAddr: 0x9D44, symBinAddr: 0x10000DA04, symSize: 0x38 }
  - { offsetInCU: 0x1B415, offset: 0x1B415, size: 0x8, addend: 0x0, symName: __ZNSt3__18ios_base8setstateB7v160006Ej, symObjAddr: 0x9D7C, symBinAddr: 0x10000DA3C, symSize: 0x34 }
  - { offsetInCU: 0x1B44C, offset: 0x1B44C, size: 0x8, addend: 0x0, symName: __ZNSt3__16vectorIiNS_9allocatorIiEEEC2B7v160006ESt16initializer_listIiE, symObjAddr: 0x9DD4, symBinAddr: 0x10000DA94, symSize: 0x128 }
  - { offsetInCU: 0x1B49C, offset: 0x1B49C, size: 0x8, addend: 0x0, symName: __ZNKSt16initializer_listIiE4sizeB7v160006Ev, symObjAddr: 0x9EFC, symBinAddr: 0x10000DBBC, symSize: 0x18 }
  - { offsetInCU: 0x1B4C2, offset: 0x1B4C2, size: 0x8, addend: 0x0, symName: __ZNSt3__16vectorIiNS_9allocatorIiEEE18__construct_at_endIPKiLi0EEEvT_S7_m, symObjAddr: 0x9F14, symBinAddr: 0x10000DBD4, symSize: 0x8C }
  - { offsetInCU: 0x1B535, offset: 0x1B535, size: 0x8, addend: 0x0, symName: __ZNKSt16initializer_listIiE5beginB7v160006Ev, symObjAddr: 0x9FA0, symBinAddr: 0x10000DC60, symSize: 0x18 }
  - { offsetInCU: 0x1B55B, offset: 0x1B55B, size: 0x8, addend: 0x0, symName: __ZNKSt16initializer_listIiE3endB7v160006Ev, symObjAddr: 0x9FB8, symBinAddr: 0x10000DC78, symSize: 0x20 }
  - { offsetInCU: 0x1B59B, offset: 0x1B59B, size: 0x8, addend: 0x0, symName: __ZNKSt3__114__copy_trivialclB7v160006IKiiLi0EEENS_4pairIPT_PT0_EES5_S5_S7_, symObjAddr: 0xA1EC, symBinAddr: 0x10000DEAC, symSize: 0x48 }
  - { offsetInCU: 0x1B623, offset: 0x1B623, size: 0x8, addend: 0x0, symName: __ZNSt3__14pairIPKiS2_EC1B7v160006IS2_S2_LPv0EEEOT_OT0_, symObjAddr: 0xA2F4, symBinAddr: 0x10000DFB4, symSize: 0x3C }
  - { offsetInCU: 0x1B681, offset: 0x1B681, size: 0x8, addend: 0x0, symName: __ZNSt3__14pairIPKiS2_EC2B7v160006IS2_S2_LPv0EEEOT_OT0_, symObjAddr: 0xA330, symBinAddr: 0x10000DFF0, symSize: 0x34 }
  - { offsetInCU: 0x1B6DF, offset: 0x1B6DF, size: 0x8, addend: 0x0, symName: __ZNSt3__118__unwrap_iter_implIPKiLb1EE8__unwrapB7v160006ES2_, symObjAddr: 0xA364, symBinAddr: 0x10000E024, symSize: 0x24 }
  - { offsetInCU: 0x1B707, offset: 0x1B707, size: 0x8, addend: 0x0, symName: __ZNSt3__14pairIPKiPiEC1B7v160006IRS2_S3_LPv0EEEOT_OT0_, symObjAddr: 0xA458, symBinAddr: 0x10000E118, symSize: 0x3C }
  - { offsetInCU: 0x1B765, offset: 0x1B765, size: 0x8, addend: 0x0, symName: __ZNSt3__14pairIPKiPiEC2B7v160006IRS2_S3_LPv0EEEOT_OT0_, symObjAddr: 0xA494, symBinAddr: 0x10000E154, symSize: 0x34 }
  - { offsetInCU: 0x1B7C3, offset: 0x1B7C3, size: 0x8, addend: 0x0, symName: __ZNSt3__14pairIPKiPiEC1B7v160006IS2_S3_LPv0EEEOT_OT0_, symObjAddr: 0xA4C8, symBinAddr: 0x10000E188, symSize: 0x3C }
  - { offsetInCU: 0x1B821, offset: 0x1B821, size: 0x8, addend: 0x0, symName: __ZNSt3__14pairIPKiPiEC2B7v160006IS2_S3_LPv0EEEOT_OT0_, symObjAddr: 0xA504, symBinAddr: 0x10000E1C4, symSize: 0x34 }
  - { offsetInCU: 0x1B87F, offset: 0x1B87F, size: 0x8, addend: 0x0, symName: __ZNSt3__118__unwrap_iter_implIPKiLb1EE8__rewrapB7v160006ES2_S2_, symObjAddr: 0xA574, symBinAddr: 0x10000E234, symSize: 0x50 }
  - { offsetInCU: 0x1B8B0, offset: 0x1B8B0, size: 0x8, addend: 0x0, symName: __ZNSt3__16vectorINS_4pairIiiEENS_9allocatorIS2_EEEC2B7v160006Ev, symObjAddr: 0xA5C4, symBinAddr: 0x10000E284, symSize: 0x58 }
  - { offsetInCU: 0x1B8DA, offset: 0x1B8DA, size: 0x8, addend: 0x0, symName: __ZNSt3__117__compressed_pairIPNS_4pairIiiEENS_9allocatorIS2_EEEC1B7v160006IDnNS_18__default_init_tagEEEOT_OT0_, symObjAddr: 0xA61C, symBinAddr: 0x10000E2DC, symSize: 0x3C }
  - { offsetInCU: 0x1B932, offset: 0x1B932, size: 0x8, addend: 0x0, symName: __ZNSt3__117__compressed_pairIPNS_4pairIiiEENS_9allocatorIS2_EEEC2B7v160006IDnNS_18__default_init_tagEEEOT_OT0_, symObjAddr: 0xA668, symBinAddr: 0x10000E328, symSize: 0x40 }
  - { offsetInCU: 0x1B98A, offset: 0x1B98A, size: 0x8, addend: 0x0, symName: __ZNSt3__122__compressed_pair_elemIPNS_4pairIiiEELi0ELb0EEC2B7v160006IDnvEEOT_, symObjAddr: 0xA6A8, symBinAddr: 0x10000E368, symSize: 0x1C }
  - { offsetInCU: 0x1B9CC, offset: 0x1B9CC, size: 0x8, addend: 0x0, symName: __ZNSt3__122__compressed_pair_elemINS_9allocatorINS_4pairIiiEEEELi1ELb1EEC2B7v160006ENS_18__default_init_tagE, symObjAddr: 0xA6C4, symBinAddr: 0x10000E384, symSize: 0x2C }
  - { offsetInCU: 0x1BA00, offset: 0x1BA00, size: 0x8, addend: 0x0, symName: __ZNSt3__19allocatorINS_4pairIiiEEEC2B7v160006Ev, symObjAddr: 0xA6F0, symBinAddr: 0x10000E3B0, symSize: 0x2C }
  - { offsetInCU: 0x1BA2A, offset: 0x1BA2A, size: 0x8, addend: 0x0, symName: __ZNSt3__116__non_trivial_ifILb1ENS_9allocatorINS_4pairIiiEEEEEC2B7v160006Ev, symObjAddr: 0xA71C, symBinAddr: 0x10000E3DC, symSize: 0x14 }
  - { offsetInCU: 0x1BA54, offset: 0x1BA54, size: 0x8, addend: 0x0, symName: __ZNSt3__16vectorINS_4pairIiiEENS_9allocatorIS2_EEED2B7v160006Ev, symObjAddr: 0xA730, symBinAddr: 0x10000E3F0, symSize: 0x44 }
  - { offsetInCU: 0x1BA7E, offset: 0x1BA7E, size: 0x8, addend: 0x0, symName: __ZNSt3__16vectorINS_4pairIiiEENS_9allocatorIS2_EEE16__destroy_vectorC1ERS5_, symObjAddr: 0xA774, symBinAddr: 0x10000E434, symSize: 0x34 }
  - { offsetInCU: 0x1BAB7, offset: 0x1BAB7, size: 0x8, addend: 0x0, symName: __ZNSt3__16vectorINS_4pairIiiEENS_9allocatorIS2_EEE16__destroy_vectorclB7v160006Ev, symObjAddr: 0xA7A8, symBinAddr: 0x10000E468, symSize: 0x9C }
  - { offsetInCU: 0x1BADD, offset: 0x1BADD, size: 0x8, addend: 0x0, symName: __ZNSt3__16vectorINS_4pairIiiEENS_9allocatorIS2_EEE16__destroy_vectorC2ERS5_, symObjAddr: 0xA844, symBinAddr: 0x10000E504, symSize: 0x20 }
  - { offsetInCU: 0x1BB16, offset: 0x1BB16, size: 0x8, addend: 0x0, symName: __ZNKSt3__16vectorINS_4pairIiiEENS_9allocatorIS2_EEE17__annotate_deleteB7v160006Ev, symObjAddr: 0xA864, symBinAddr: 0x10000E524, symSize: 0xB8 }
  - { offsetInCU: 0x1BB3C, offset: 0x1BB3C, size: 0x8, addend: 0x0, symName: __ZNSt3__16vectorINS_4pairIiiEENS_9allocatorIS2_EEE7__clearB7v160006Ev, symObjAddr: 0xA92C, symBinAddr: 0x10000E5EC, symSize: 0x28 }
  - { offsetInCU: 0x1BB62, offset: 0x1BB62, size: 0x8, addend: 0x0, symName: __ZNSt3__116allocator_traitsINS_9allocatorINS_4pairIiiEEEEE10deallocateB7v160006ERS4_PS3_m, symObjAddr: 0xA954, symBinAddr: 0x10000E614, symSize: 0x34 }
  - { offsetInCU: 0x1BBA4, offset: 0x1BBA4, size: 0x8, addend: 0x0, symName: __ZNSt3__16vectorINS_4pairIiiEENS_9allocatorIS2_EEE7__allocB7v160006Ev, symObjAddr: 0xA988, symBinAddr: 0x10000E648, symSize: 0x28 }
  - { offsetInCU: 0x1BBCA, offset: 0x1BBCA, size: 0x8, addend: 0x0, symName: __ZNKSt3__16vectorINS_4pairIiiEENS_9allocatorIS2_EEE8capacityB7v160006Ev, symObjAddr: 0xA9B0, symBinAddr: 0x10000E670, symSize: 0x40 }
  - { offsetInCU: 0x1BBF0, offset: 0x1BBF0, size: 0x8, addend: 0x0, symName: __ZNKSt3__16vectorINS_4pairIiiEENS_9allocatorIS2_EEE31__annotate_contiguous_containerB7v160006EPKvS7_S7_S7_, symObjAddr: 0xA9F0, symBinAddr: 0x10000E6B0, symSize: 0x20 }
  - { offsetInCU: 0x1BC42, offset: 0x1BC42, size: 0x8, addend: 0x0, symName: __ZNKSt3__16vectorINS_4pairIiiEENS_9allocatorIS2_EEE4dataB7v160006Ev, symObjAddr: 0xAA10, symBinAddr: 0x10000E6D0, symSize: 0x28 }
  - { offsetInCU: 0x1BC68, offset: 0x1BC68, size: 0x8, addend: 0x0, symName: __ZNKSt3__16vectorINS_4pairIiiEENS_9allocatorIS2_EEE4sizeB7v160006Ev, symObjAddr: 0xAA38, symBinAddr: 0x10000E6F8, symSize: 0x28 }
  - { offsetInCU: 0x1BC8E, offset: 0x1BC8E, size: 0x8, addend: 0x0, symName: __ZNSt3__16vectorINS_4pairIiiEENS_9allocatorIS2_EEE22__base_destruct_at_endB7v160006EPS2_, symObjAddr: 0xAA74, symBinAddr: 0x10000E734, symSize: 0x8C }
  - { offsetInCU: 0x1BCD2, offset: 0x1BCD2, size: 0x8, addend: 0x0, symName: __ZNSt3__116allocator_traitsINS_9allocatorINS_4pairIiiEEEEE7destroyB7v160006IS3_vEEvRS4_PT_, symObjAddr: 0xAB00, symBinAddr: 0x10000E7C0, symSize: 0x2C }
  - { offsetInCU: 0x1BD0F, offset: 0x1BD0F, size: 0x8, addend: 0x0, symName: __ZNSt3__19allocatorINS_4pairIiiEEE7destroyB7v160006EPS2_, symObjAddr: 0xAB2C, symBinAddr: 0x10000E7EC, symSize: 0x14 }
  - { offsetInCU: 0x1BD43, offset: 0x1BD43, size: 0x8, addend: 0x0, symName: __ZNSt3__19allocatorINS_4pairIiiEEE10deallocateB7v160006EPS2_m, symObjAddr: 0xAB40, symBinAddr: 0x10000E800, symSize: 0x40 }
  - { offsetInCU: 0x1BD85, offset: 0x1BD85, size: 0x8, addend: 0x0, symName: __ZNSt3__117__compressed_pairIPNS_4pairIiiEENS_9allocatorIS2_EEE6secondB7v160006Ev, symObjAddr: 0xAB80, symBinAddr: 0x10000E840, symSize: 0x24 }
  - { offsetInCU: 0x1BDAB, offset: 0x1BDAB, size: 0x8, addend: 0x0, symName: __ZNSt3__122__compressed_pair_elemINS_9allocatorINS_4pairIiiEEEELi1ELb1EE5__getB7v160006Ev, symObjAddr: 0xABA4, symBinAddr: 0x10000E864, symSize: 0x14 }
  - { offsetInCU: 0x1BDD1, offset: 0x1BDD1, size: 0x8, addend: 0x0, symName: __ZNKSt3__16vectorINS_4pairIiiEENS_9allocatorIS2_EEE9__end_capB7v160006Ev, symObjAddr: 0xABB8, symBinAddr: 0x10000E878, symSize: 0x28 }
  - { offsetInCU: 0x1BDF7, offset: 0x1BDF7, size: 0x8, addend: 0x0, symName: __ZNKSt3__117__compressed_pairIPNS_4pairIiiEENS_9allocatorIS2_EEE5firstB7v160006Ev, symObjAddr: 0xABE0, symBinAddr: 0x10000E8A0, symSize: 0x24 }
  - { offsetInCU: 0x1BE1D, offset: 0x1BE1D, size: 0x8, addend: 0x0, symName: __ZNKSt3__122__compressed_pair_elemIPNS_4pairIiiEELi0ELb0EE5__getB7v160006Ev, symObjAddr: 0xAC04, symBinAddr: 0x10000E8C4, symSize: 0x14 }
  - { offsetInCU: 0x1BE43, offset: 0x1BE43, size: 0x8, addend: 0x0, symName: __ZNSt3__16vectorIiNS_9allocatorIiEEE11__make_iterB7v160006EPi, symObjAddr: 0xAC18, symBinAddr: 0x10000E8D8, symSize: 0x34 }
  - { offsetInCU: 0x1BE78, offset: 0x1BE78, size: 0x8, addend: 0x0, symName: __ZNSt3__111__wrap_iterIPiEC1B7v160006EPKvS1_, symObjAddr: 0xAC4C, symBinAddr: 0x10000E90C, symSize: 0x3C }
  - { offsetInCU: 0x1BEBE, offset: 0x1BEBE, size: 0x8, addend: 0x0, symName: __ZNSt3__111__wrap_iterIPiEC2B7v160006EPKvS1_, symObjAddr: 0xAC88, symBinAddr: 0x10000E948, symSize: 0x24 }
  - { offsetInCU: 0x1BF04, offset: 0x1BF04, size: 0x8, addend: 0x0, symName: __ZNSt3__16vectorINS_4pairIiiEENS_9allocatorIS2_EEE9__end_capB7v160006Ev, symObjAddr: 0xACAC, symBinAddr: 0x10000E96C, symSize: 0x28 }
  - { offsetInCU: 0x1BF2A, offset: 0x1BF2A, size: 0x8, addend: 0x0, symName: __ZNSt3__16vectorINS_4pairIiiEENS_9allocatorIS2_EEE22__construct_one_at_endB7v160006IJS2_EEEvDpOT_, symObjAddr: 0xACD4, symBinAddr: 0x10000E994, symSize: 0x90 }
  - { offsetInCU: 0x1BF79, offset: 0x1BF79, size: 0x8, addend: 0x0, symName: __ZNSt3__16vectorINS_4pairIiiEENS_9allocatorIS2_EEE21__push_back_slow_pathIS2_EEvOT_, symObjAddr: 0xAD64, symBinAddr: 0x10000EA24, symSize: 0xD8 }
  - { offsetInCU: 0x1BFD7, offset: 0x1BFD7, size: 0x8, addend: 0x0, symName: __ZNSt3__117__compressed_pairIPNS_4pairIiiEENS_9allocatorIS2_EEE5firstB7v160006Ev, symObjAddr: 0xAE3C, symBinAddr: 0x10000EAFC, symSize: 0x24 }
  - { offsetInCU: 0x1BFFD, offset: 0x1BFFD, size: 0x8, addend: 0x0, symName: __ZNSt3__122__compressed_pair_elemIPNS_4pairIiiEELi0ELb0EE5__getB7v160006Ev, symObjAddr: 0xAE60, symBinAddr: 0x10000EB20, symSize: 0x14 }
  - { offsetInCU: 0x1C03C, offset: 0x1C03C, size: 0x8, addend: 0x0, symName: __ZNSt3__16vectorINS_4pairIiiEENS_9allocatorIS2_EEE21_ConstructTransactionC1B7v160006ERS5_m, symObjAddr: 0xAE74, symBinAddr: 0x10000EB34, symSize: 0x3C }
  - { offsetInCU: 0x1C084, offset: 0x1C084, size: 0x8, addend: 0x0, symName: __ZNSt3__116allocator_traitsINS_9allocatorINS_4pairIiiEEEEE9constructB7v160006IS3_JS3_EvEEvRS4_PT_DpOT0_, symObjAddr: 0xAEB0, symBinAddr: 0x10000EB70, symSize: 0x34 }
  - { offsetInCU: 0x1C0DB, offset: 0x1C0DB, size: 0x8, addend: 0x0, symName: __ZNSt3__16vectorINS_4pairIiiEENS_9allocatorIS2_EEE21_ConstructTransactionD1B7v160006Ev, symObjAddr: 0xAEE4, symBinAddr: 0x10000EBA4, symSize: 0x2C }
  - { offsetInCU: 0x1C105, offset: 0x1C105, size: 0x8, addend: 0x0, symName: __ZNSt3__16vectorINS_4pairIiiEENS_9allocatorIS2_EEE21_ConstructTransactionC2B7v160006ERS5_m, symObjAddr: 0xAF10, symBinAddr: 0x10000EBD0, symSize: 0x44 }
  - { offsetInCU: 0x1C14D, offset: 0x1C14D, size: 0x8, addend: 0x0, symName: __ZNSt3__19allocatorINS_4pairIiiEEE9constructB7v160006IS2_JS2_EEEvPT_DpOT0_, symObjAddr: 0xAF54, symBinAddr: 0x10000EC14, symSize: 0x28 }
  - { offsetInCU: 0x1C1A3, offset: 0x1C1A3, size: 0x8, addend: 0x0, symName: __ZNSt3__16vectorINS_4pairIiiEENS_9allocatorIS2_EEE21_ConstructTransactionD2B7v160006Ev, symObjAddr: 0xAF7C, symBinAddr: 0x10000EC3C, symSize: 0x20 }
  - { offsetInCU: 0x1C1CD, offset: 0x1C1CD, size: 0x8, addend: 0x0, symName: __ZNKSt3__16vectorINS_4pairIiiEENS_9allocatorIS2_EEE11__recommendB7v160006Em, symObjAddr: 0xAF9C, symBinAddr: 0x10000EC5C, symSize: 0xB4 }
  - { offsetInCU: 0x1C222, offset: 0x1C222, size: 0x8, addend: 0x0, symName: __ZNSt3__114__split_bufferINS_4pairIiiEERNS_9allocatorIS2_EEEC1EmmS5_, symObjAddr: 0xB050, symBinAddr: 0x10000ED10, symSize: 0x44 }
  - { offsetInCU: 0x1C278, offset: 0x1C278, size: 0x8, addend: 0x0, symName: __ZNSt3__114__split_bufferINS_4pairIiiEERNS_9allocatorIS2_EEED1Ev, symObjAddr: 0xB1AC, symBinAddr: 0x10000EE6C, symSize: 0x2C }
  - { offsetInCU: 0x1C2A4, offset: 0x1C2A4, size: 0x8, addend: 0x0, symName: __ZNKSt3__16vectorINS_4pairIiiEENS_9allocatorIS2_EEE8max_sizeEv, symObjAddr: 0xB1D8, symBinAddr: 0x10000EE98, symSize: 0x60 }
  - { offsetInCU: 0x1C2CC, offset: 0x1C2CC, size: 0x8, addend: 0x0, symName: __ZNKSt3__16vectorINS_4pairIiiEENS_9allocatorIS2_EEE20__throw_length_errorB7v160006Ev, symObjAddr: 0xB238, symBinAddr: 0x10000EEF8, symSize: 0x1C }
  - { offsetInCU: 0x1C2FC, offset: 0x1C2FC, size: 0x8, addend: 0x0, symName: __ZNSt3__116allocator_traitsINS_9allocatorINS_4pairIiiEEEEE8max_sizeB7v160006IS4_vEEmRKS4_, symObjAddr: 0xB254, symBinAddr: 0x10000EF14, symSize: 0x24 }
  - { offsetInCU: 0x1C32A, offset: 0x1C32A, size: 0x8, addend: 0x0, symName: __ZNKSt3__16vectorINS_4pairIiiEENS_9allocatorIS2_EEE7__allocB7v160006Ev, symObjAddr: 0xB278, symBinAddr: 0x10000EF38, symSize: 0x28 }
  - { offsetInCU: 0x1C350, offset: 0x1C350, size: 0x8, addend: 0x0, symName: __ZNKSt3__19allocatorINS_4pairIiiEEE8max_sizeB7v160006Ev, symObjAddr: 0xB2A0, symBinAddr: 0x10000EF60, symSize: 0x14 }
  - { offsetInCU: 0x1C376, offset: 0x1C376, size: 0x8, addend: 0x0, symName: __ZNKSt3__117__compressed_pairIPNS_4pairIiiEENS_9allocatorIS2_EEE6secondB7v160006Ev, symObjAddr: 0xB2B4, symBinAddr: 0x10000EF74, symSize: 0x24 }
  - { offsetInCU: 0x1C39C, offset: 0x1C39C, size: 0x8, addend: 0x0, symName: __ZNKSt3__122__compressed_pair_elemINS_9allocatorINS_4pairIiiEEEELi1ELb1EE5__getB7v160006Ev, symObjAddr: 0xB2D8, symBinAddr: 0x10000EF98, symSize: 0x14 }
  - { offsetInCU: 0x1C3C2, offset: 0x1C3C2, size: 0x8, addend: 0x0, symName: __ZNSt3__114__split_bufferINS_4pairIiiEERNS_9allocatorIS2_EEEC2EmmS5_, symObjAddr: 0xB2EC, symBinAddr: 0x10000EFAC, symSize: 0xD4 }
  - { offsetInCU: 0x1C435, offset: 0x1C435, size: 0x8, addend: 0x0, symName: __ZNSt3__117__compressed_pairIPNS_4pairIiiEERNS_9allocatorIS2_EEEC1B7v160006IDnS6_EEOT_OT0_, symObjAddr: 0xB3C0, symBinAddr: 0x10000F080, symSize: 0x3C }
  - { offsetInCU: 0x1C48D, offset: 0x1C48D, size: 0x8, addend: 0x0, symName: __ZNSt3__114__split_bufferINS_4pairIiiEERNS_9allocatorIS2_EEE7__allocB7v160006Ev, symObjAddr: 0xB43C, symBinAddr: 0x10000F0FC, symSize: 0x28 }
  - { offsetInCU: 0x1C4B3, offset: 0x1C4B3, size: 0x8, addend: 0x0, symName: __ZNSt3__114__split_bufferINS_4pairIiiEERNS_9allocatorIS2_EEE9__end_capB7v160006Ev, symObjAddr: 0xB464, symBinAddr: 0x10000F124, symSize: 0x28 }
  - { offsetInCU: 0x1C4D9, offset: 0x1C4D9, size: 0x8, addend: 0x0, symName: __ZNSt3__117__compressed_pairIPNS_4pairIiiEERNS_9allocatorIS2_EEEC2B7v160006IDnS6_EEOT_OT0_, symObjAddr: 0xB48C, symBinAddr: 0x10000F14C, symSize: 0x48 }
  - { offsetInCU: 0x1C531, offset: 0x1C531, size: 0x8, addend: 0x0, symName: __ZNSt3__122__compressed_pair_elemIRNS_9allocatorINS_4pairIiiEEEELi1ELb0EEC2B7v160006IS5_vEEOT_, symObjAddr: 0xB4D4, symBinAddr: 0x10000F194, symSize: 0x20 }
  - { offsetInCU: 0x1C573, offset: 0x1C573, size: 0x8, addend: 0x0, symName: __ZNSt3__19allocatorINS_4pairIiiEEE8allocateB7v160006Em, symObjAddr: 0xB4F4, symBinAddr: 0x10000F1B4, symSize: 0x58 }
  - { offsetInCU: 0x1C5A7, offset: 0x1C5A7, size: 0x8, addend: 0x0, symName: __ZNSt3__117__compressed_pairIPNS_4pairIiiEERNS_9allocatorIS2_EEE6secondB7v160006Ev, symObjAddr: 0xB54C, symBinAddr: 0x10000F20C, symSize: 0x28 }
  - { offsetInCU: 0x1C5CD, offset: 0x1C5CD, size: 0x8, addend: 0x0, symName: __ZNSt3__122__compressed_pair_elemIRNS_9allocatorINS_4pairIiiEEEELi1ELb0EE5__getB7v160006Ev, symObjAddr: 0xB574, symBinAddr: 0x10000F234, symSize: 0x18 }
  - { offsetInCU: 0x1C5F3, offset: 0x1C5F3, size: 0x8, addend: 0x0, symName: __ZNSt3__117__compressed_pairIPNS_4pairIiiEERNS_9allocatorIS2_EEE5firstB7v160006Ev, symObjAddr: 0xB58C, symBinAddr: 0x10000F24C, symSize: 0x24 }
  - { offsetInCU: 0x1C619, offset: 0x1C619, size: 0x8, addend: 0x0, symName: __ZNSt3__116reverse_iteratorIPNS_4pairIiiEEEC1B7v160006ES3_, symObjAddr: 0xB6DC, symBinAddr: 0x10000F39C, symSize: 0x34 }
  - { offsetInCU: 0x1C651, offset: 0x1C651, size: 0x8, addend: 0x0, symName: __ZNKSt3__116reverse_iteratorIPNS_4pairIiiEEE4baseB7v160006Ev, symObjAddr: 0xB710, symBinAddr: 0x10000F3D0, symSize: 0x18 }
  - { offsetInCU: 0x1C677, offset: 0x1C677, size: 0x8, addend: 0x0, symName: __ZNKSt3__16vectorINS_4pairIiiEENS_9allocatorIS2_EEE14__annotate_newB7v160006Em, symObjAddr: 0xB764, symBinAddr: 0x10000F424, symSize: 0xAC }
  - { offsetInCU: 0x1C6AC, offset: 0x1C6AC, size: 0x8, addend: 0x0, symName: __ZNSt3__129_AllocatorDestroyRangeReverseINS_9allocatorINS_4pairIiiEEEENS_16reverse_iteratorIPS3_EEEC1B7v160006ERS4_RS7_SA_, symObjAddr: 0xB86C, symBinAddr: 0x10000F52C, symSize: 0x44 }
  - { offsetInCU: 0x1C703, offset: 0x1C703, size: 0x8, addend: 0x0, symName: __ZNKSt3__116reverse_iteratorIPNS_4pairIiiEEEdeB7v160006Ev, symObjAddr: 0xB91C, symBinAddr: 0x10000F5DC, symSize: 0x28 }
  - { offsetInCU: 0x1C737, offset: 0x1C737, size: 0x8, addend: 0x0, symName: __ZNSt3__116reverse_iteratorIPNS_4pairIiiEEEppB7v160006Ev, symObjAddr: 0xB944, symBinAddr: 0x10000F604, symSize: 0x20 }
  - { offsetInCU: 0x1C75D, offset: 0x1C75D, size: 0x8, addend: 0x0, symName: __ZNSt3__128__exception_guard_exceptionsINS_29_AllocatorDestroyRangeReverseINS_9allocatorINS_4pairIiiEEEENS_16reverse_iteratorIPS4_EEEEE10__completeB7v160006Ev, symObjAddr: 0xB964, symBinAddr: 0x10000F624, symSize: 0x1C }
  - { offsetInCU: 0x1C783, offset: 0x1C783, size: 0x8, addend: 0x0, symName: __ZNSt3__128__exception_guard_exceptionsINS_29_AllocatorDestroyRangeReverseINS_9allocatorINS_4pairIiiEEEENS_16reverse_iteratorIPS4_EEEEED1B7v160006Ev, symObjAddr: 0xB980, symBinAddr: 0x10000F640, symSize: 0x2C }
  - { offsetInCU: 0x1C7AD, offset: 0x1C7AD, size: 0x8, addend: 0x0, symName: __ZNSt3__128__exception_guard_exceptionsINS_29_AllocatorDestroyRangeReverseINS_9allocatorINS_4pairIiiEEEENS_16reverse_iteratorIPS4_EEEEEC1B7v160006ES9_, symObjAddr: 0xB9AC, symBinAddr: 0x10000F66C, symSize: 0x34 }
  - { offsetInCU: 0x1C7E6, offset: 0x1C7E6, size: 0x8, addend: 0x0, symName: __ZNSt3__128__exception_guard_exceptionsINS_29_AllocatorDestroyRangeReverseINS_9allocatorINS_4pairIiiEEEENS_16reverse_iteratorIPS4_EEEEEC2B7v160006ES9_, symObjAddr: 0xB9E0, symBinAddr: 0x10000F6A0, symSize: 0x30 }
  - { offsetInCU: 0x1C81F, offset: 0x1C81F, size: 0x8, addend: 0x0, symName: __ZNSt3__129_AllocatorDestroyRangeReverseINS_9allocatorINS_4pairIiiEEEENS_16reverse_iteratorIPS3_EEEC2B7v160006ERS4_RS7_SA_, symObjAddr: 0xBA10, symBinAddr: 0x10000F6D0, symSize: 0x38 }
  - { offsetInCU: 0x1C87B, offset: 0x1C87B, size: 0x8, addend: 0x0, symName: __ZNSt3__119__to_address_helperINS_16reverse_iteratorIPNS_4pairIiiEEEEvE6__callB7v160006ERKS5_, symObjAddr: 0xBA48, symBinAddr: 0x10000F708, symSize: 0x38 }
  - { offsetInCU: 0x1C89E, offset: 0x1C89E, size: 0x8, addend: 0x0, symName: __ZNKSt3__116reverse_iteratorIPNS_4pairIiiEEEptB7v160006Ev, symObjAddr: 0xBA80, symBinAddr: 0x10000F740, symSize: 0x24 }
  - { offsetInCU: 0x1C8C4, offset: 0x1C8C4, size: 0x8, addend: 0x0, symName: __ZNSt3__128__exception_guard_exceptionsINS_29_AllocatorDestroyRangeReverseINS_9allocatorINS_4pairIiiEEEENS_16reverse_iteratorIPS4_EEEEED2B7v160006Ev, symObjAddr: 0xBAA4, symBinAddr: 0x10000F764, symSize: 0x50 }
  - { offsetInCU: 0x1C8EE, offset: 0x1C8EE, size: 0x8, addend: 0x0, symName: __ZNKSt3__129_AllocatorDestroyRangeReverseINS_9allocatorINS_4pairIiiEEEENS_16reverse_iteratorIPS3_EEEclB7v160006Ev, symObjAddr: 0xBAF4, symBinAddr: 0x10000F7B4, symSize: 0xB4 }
  - { offsetInCU: 0x1C915, offset: 0x1C915, size: 0x8, addend: 0x0, symName: __ZNSt3__116reverse_iteratorINS0_IPNS_4pairIiiEEEEEC1B7v160006ES4_, symObjAddr: 0xBC18, symBinAddr: 0x10000F8D8, symSize: 0x3C }
  - { offsetInCU: 0x1C94D, offset: 0x1C94D, size: 0x8, addend: 0x0, symName: __ZNSt3__116reverse_iteratorINS0_IPNS_4pairIiiEEEEEppB7v160006Ev, symObjAddr: 0xBCD8, symBinAddr: 0x10000F998, symSize: 0x30 }
  - { offsetInCU: 0x1C973, offset: 0x1C973, size: 0x8, addend: 0x0, symName: __ZNKSt3__116reverse_iteratorINS0_IPNS_4pairIiiEEEEE4baseB7v160006Ev, symObjAddr: 0xBD08, symBinAddr: 0x10000F9C8, symSize: 0x24 }
  - { offsetInCU: 0x1C99E, offset: 0x1C99E, size: 0x8, addend: 0x0, symName: __ZNSt3__119__to_address_helperINS_16reverse_iteratorINS1_IPNS_4pairIiiEEEEEEvE6__callB7v160006ERKS6_, symObjAddr: 0xBD2C, symBinAddr: 0x10000F9EC, symSize: 0x38 }
  - { offsetInCU: 0x1C9C1, offset: 0x1C9C1, size: 0x8, addend: 0x0, symName: __ZNKSt3__116reverse_iteratorINS0_IPNS_4pairIiiEEEEEptB7v160006Ev, symObjAddr: 0xBD64, symBinAddr: 0x10000FA24, symSize: 0x24 }
  - { offsetInCU: 0x1C9E7, offset: 0x1C9E7, size: 0x8, addend: 0x0, symName: __ZNKSt3__116reverse_iteratorINS0_IPNS_4pairIiiEEEEEdeB7v160006Ev, symObjAddr: 0xBD88, symBinAddr: 0x10000FA48, symSize: 0x34 }
  - { offsetInCU: 0x1CA1B, offset: 0x1CA1B, size: 0x8, addend: 0x0, symName: __ZNSt3__116reverse_iteratorIPNS_4pairIiiEEEmmB7v160006Ev, symObjAddr: 0xBDBC, symBinAddr: 0x10000FA7C, symSize: 0x20 }
  - { offsetInCU: 0x1CA41, offset: 0x1CA41, size: 0x8, addend: 0x0, symName: __ZNSt3__116reverse_iteratorINS0_IPNS_4pairIiiEEEEEC2B7v160006ES4_, symObjAddr: 0xBDDC, symBinAddr: 0x10000FA9C, symSize: 0x2C }
  - { offsetInCU: 0x1CA79, offset: 0x1CA79, size: 0x8, addend: 0x0, symName: __ZNSt3__116reverse_iteratorIPNS_4pairIiiEEEC2B7v160006ES3_, symObjAddr: 0xBE08, symBinAddr: 0x10000FAC8, symSize: 0x28 }
  - { offsetInCU: 0x1CAB1, offset: 0x1CAB1, size: 0x8, addend: 0x0, symName: __ZNSt3__114__split_bufferINS_4pairIiiEERNS_9allocatorIS2_EEED2Ev, symObjAddr: 0xBE30, symBinAddr: 0x10000FAF0, symSize: 0x8C }
  - { offsetInCU: 0x1CADD, offset: 0x1CADD, size: 0x8, addend: 0x0, symName: __ZNSt3__114__split_bufferINS_4pairIiiEERNS_9allocatorIS2_EEE5clearB7v160006Ev, symObjAddr: 0xBEBC, symBinAddr: 0x10000FB7C, symSize: 0x28 }
  - { offsetInCU: 0x1CB03, offset: 0x1CB03, size: 0x8, addend: 0x0, symName: __ZNKSt3__114__split_bufferINS_4pairIiiEERNS_9allocatorIS2_EEE8capacityB7v160006Ev, symObjAddr: 0xBEE4, symBinAddr: 0x10000FBA4, symSize: 0x40 }
  - { offsetInCU: 0x1CB29, offset: 0x1CB29, size: 0x8, addend: 0x0, symName: __ZNSt3__114__split_bufferINS_4pairIiiEERNS_9allocatorIS2_EEE17__destruct_at_endB7v160006EPS2_, symObjAddr: 0xBF24, symBinAddr: 0x10000FBE4, symSize: 0x2C }
  - { offsetInCU: 0x1CB5D, offset: 0x1CB5D, size: 0x8, addend: 0x0, symName: __ZNSt3__114__split_bufferINS_4pairIiiEERNS_9allocatorIS2_EEE17__destruct_at_endB7v160006EPS2_NS_17integral_constantIbLb0EEE, symObjAddr: 0xBF50, symBinAddr: 0x10000FC10, symSize: 0x80 }
  - { offsetInCU: 0x1CB9D, offset: 0x1CB9D, size: 0x8, addend: 0x0, symName: __ZNKSt3__114__split_bufferINS_4pairIiiEERNS_9allocatorIS2_EEE9__end_capB7v160006Ev, symObjAddr: 0xBFD0, symBinAddr: 0x10000FC90, symSize: 0x28 }
  - { offsetInCU: 0x1CBC3, offset: 0x1CBC3, size: 0x8, addend: 0x0, symName: __ZNKSt3__117__compressed_pairIPNS_4pairIiiEERNS_9allocatorIS2_EEE5firstB7v160006Ev, symObjAddr: 0xBFF8, symBinAddr: 0x10000FCB8, symSize: 0x24 }
  - { offsetInCU: 0x1CBE9, offset: 0x1CBE9, size: 0x8, addend: 0x0, symName: __ZNSt3__13setINS_6vectorIiNS_9allocatorIiEEEENS_4lessIS4_EENS2_IS4_EEEC2B7v160006Ev, symObjAddr: 0xC01C, symBinAddr: 0x10000FCDC, symSize: 0x30 }
  - { offsetInCU: 0x1CC13, offset: 0x1CC13, size: 0x8, addend: 0x0, symName: __ZNSt3__16__treeINS_6vectorIiNS_9allocatorIiEEEENS_4lessIS4_EENS2_IS4_EEEC1ERKS6_, symObjAddr: 0xC04C, symBinAddr: 0x10000FD0C, symSize: 0x34 }
  - { offsetInCU: 0x1CC4E, offset: 0x1CC4E, size: 0x8, addend: 0x0, symName: __ZNSt3__16__treeINS_6vectorIiNS_9allocatorIiEEEENS_4lessIS4_EENS2_IS4_EEEC2ERKS6_, symObjAddr: 0xC080, symBinAddr: 0x10000FD40, symSize: 0x7C }
  - { offsetInCU: 0x1CC89, offset: 0x1CC89, size: 0x8, addend: 0x0, symName: __ZNSt3__117__compressed_pairINS_15__tree_end_nodeIPNS_16__tree_node_baseIPvEEEENS_9allocatorINS_11__tree_nodeINS_6vectorIiNS7_IiEEEES3_EEEEEC1B7v160006ILb1EvEEv, symObjAddr: 0xC0FC, symBinAddr: 0x10000FDBC, symSize: 0x2C }
  - { offsetInCU: 0x1CCBE, offset: 0x1CCBE, size: 0x8, addend: 0x0, symName: __ZNSt3__117__compressed_pairImNS_4lessINS_6vectorIiNS_9allocatorIiEEEEEEEC1B7v160006IiRKS6_EEOT_OT0_, symObjAddr: 0xC128, symBinAddr: 0x10000FDE8, symSize: 0x3C }
  - { offsetInCU: 0x1CD16, offset: 0x1CD16, size: 0x8, addend: 0x0, symName: __ZNSt3__16__treeINS_6vectorIiNS_9allocatorIiEEEENS_4lessIS4_EENS2_IS4_EEE10__end_nodeB7v160006Ev, symObjAddr: 0xC164, symBinAddr: 0x10000FE24, symSize: 0x2C }
  - { offsetInCU: 0x1CD3C, offset: 0x1CD3C, size: 0x8, addend: 0x0, symName: __ZNSt3__16__treeINS_6vectorIiNS_9allocatorIiEEEENS_4lessIS4_EENS2_IS4_EEE12__begin_nodeB7v160006Ev, symObjAddr: 0xC190, symBinAddr: 0x10000FE50, symSize: 0x14 }
  - { offsetInCU: 0x1CD62, offset: 0x1CD62, size: 0x8, addend: 0x0, symName: __ZNSt3__117__compressed_pairINS_15__tree_end_nodeIPNS_16__tree_node_baseIPvEEEENS_9allocatorINS_11__tree_nodeINS_6vectorIiNS7_IiEEEES3_EEEEEC2B7v160006ILb1EvEEv, symObjAddr: 0xC1A4, symBinAddr: 0x10000FE64, symSize: 0x34 }
  - { offsetInCU: 0x1CD97, offset: 0x1CD97, size: 0x8, addend: 0x0, symName: __ZNSt3__122__compressed_pair_elemINS_15__tree_end_nodeIPNS_16__tree_node_baseIPvEEEELi0ELb0EEC2B7v160006ENS_16__value_init_tagE, symObjAddr: 0xC1D8, symBinAddr: 0x10000FE98, symSize: 0x2C }
  - { offsetInCU: 0x1CDCB, offset: 0x1CDCB, size: 0x8, addend: 0x0, symName: __ZNSt3__122__compressed_pair_elemINS_9allocatorINS_11__tree_nodeINS_6vectorIiNS1_IiEEEEPvEEEELi1ELb1EEC2B7v160006ENS_16__value_init_tagE, symObjAddr: 0xC204, symBinAddr: 0x10000FEC4, symSize: 0x2C }
  - { offsetInCU: 0x1CDFF, offset: 0x1CDFF, size: 0x8, addend: 0x0, symName: __ZNSt3__115__tree_end_nodeIPNS_16__tree_node_baseIPvEEEC1B7v160006Ev, symObjAddr: 0xC230, symBinAddr: 0x10000FEF0, symSize: 0x2C }
  - { offsetInCU: 0x1CE29, offset: 0x1CE29, size: 0x8, addend: 0x0, symName: __ZNSt3__115__tree_end_nodeIPNS_16__tree_node_baseIPvEEEC2B7v160006Ev, symObjAddr: 0xC25C, symBinAddr: 0x10000FF1C, symSize: 0x18 }
  - { offsetInCU: 0x1CE53, offset: 0x1CE53, size: 0x8, addend: 0x0, symName: __ZNSt3__19allocatorINS_11__tree_nodeINS_6vectorIiNS0_IiEEEEPvEEEC2B7v160006Ev, symObjAddr: 0xC274, symBinAddr: 0x10000FF34, symSize: 0x2C }
  - { offsetInCU: 0x1CE7D, offset: 0x1CE7D, size: 0x8, addend: 0x0, symName: __ZNSt3__116__non_trivial_ifILb1ENS_9allocatorINS_11__tree_nodeINS_6vectorIiNS1_IiEEEEPvEEEEEC2B7v160006Ev, symObjAddr: 0xC2A0, symBinAddr: 0x10000FF60, symSize: 0x14 }
  - { offsetInCU: 0x1CEA7, offset: 0x1CEA7, size: 0x8, addend: 0x0, symName: __ZNSt3__117__compressed_pairImNS_4lessINS_6vectorIiNS_9allocatorIiEEEEEEEC2B7v160006IiRKS6_EEOT_OT0_, symObjAddr: 0xC2B4, symBinAddr: 0x10000FF74, symSize: 0x44 }
  - { offsetInCU: 0x1CEFF, offset: 0x1CEFF, size: 0x8, addend: 0x0, symName: __ZNSt3__122__compressed_pair_elemINS_4lessINS_6vectorIiNS_9allocatorIiEEEEEELi1ELb1EEC2B7v160006IRKS6_vEEOT_, symObjAddr: 0xC2F8, symBinAddr: 0x10000FFB8, symSize: 0x18 }
  - { offsetInCU: 0x1CF41, offset: 0x1CF41, size: 0x8, addend: 0x0, symName: __ZNSt3__114pointer_traitsIPNS_15__tree_end_nodeIPNS_16__tree_node_baseIPvEEEEE10pointer_toB7v160006ERS6_, symObjAddr: 0xC310, symBinAddr: 0x10000FFD0, symSize: 0x14 }
  - { offsetInCU: 0x1CF64, offset: 0x1CF64, size: 0x8, addend: 0x0, symName: __ZNSt3__117__compressed_pairINS_15__tree_end_nodeIPNS_16__tree_node_baseIPvEEEENS_9allocatorINS_11__tree_nodeINS_6vectorIiNS7_IiEEEES3_EEEEE5firstB7v160006Ev, symObjAddr: 0xC324, symBinAddr: 0x10000FFE4, symSize: 0x24 }
  - { offsetInCU: 0x1CF8A, offset: 0x1CF8A, size: 0x8, addend: 0x0, symName: __ZNSt3__122__compressed_pair_elemINS_15__tree_end_nodeIPNS_16__tree_node_baseIPvEEEELi0ELb0EE5__getB7v160006Ev, symObjAddr: 0xC348, symBinAddr: 0x100010008, symSize: 0x14 }
  - { offsetInCU: 0x1CFB0, offset: 0x1CFB0, size: 0x8, addend: 0x0, symName: __ZNSt3__13setINS_6vectorIiNS_9allocatorIiEEEENS_4lessIS4_EENS2_IS4_EEED2B7v160006Ev, symObjAddr: 0xC35C, symBinAddr: 0x10001001C, symSize: 0x2C }
  - { offsetInCU: 0x1CFDA, offset: 0x1CFDA, size: 0x8, addend: 0x0, symName: __ZNSt3__16__treeINS_6vectorIiNS_9allocatorIiEEEENS_4lessIS4_EENS2_IS4_EEED1Ev, symObjAddr: 0xC388, symBinAddr: 0x100010048, symSize: 0x2C }
  - { offsetInCU: 0x1D006, offset: 0x1D006, size: 0x8, addend: 0x0, symName: __ZNSt3__16__treeINS_6vectorIiNS_9allocatorIiEEEENS_4lessIS4_EENS2_IS4_EEED2Ev, symObjAddr: 0xC3B4, symBinAddr: 0x100010074, symSize: 0x38 }
  - { offsetInCU: 0x1D032, offset: 0x1D032, size: 0x8, addend: 0x0, symName: __ZNSt3__16__treeINS_6vectorIiNS_9allocatorIiEEEENS_4lessIS4_EENS2_IS4_EEE7destroyEPNS_11__tree_nodeIS4_PvEE, symObjAddr: 0xC3EC, symBinAddr: 0x1000100AC, symSize: 0xAC }
  - { offsetInCU: 0x1D07E, offset: 0x1D07E, size: 0x8, addend: 0x0, symName: __ZNKSt3__16__treeINS_6vectorIiNS_9allocatorIiEEEENS_4lessIS4_EENS2_IS4_EEE6__rootB7v160006Ev, symObjAddr: 0xC498, symBinAddr: 0x100010158, symSize: 0x28 }
  - { offsetInCU: 0x1D0A4, offset: 0x1D0A4, size: 0x8, addend: 0x0, symName: __ZNSt3__16__treeINS_6vectorIiNS_9allocatorIiEEEENS_4lessIS4_EENS2_IS4_EEE12__node_allocB7v160006Ev, symObjAddr: 0xC4C0, symBinAddr: 0x100010180, symSize: 0x28 }
  - { offsetInCU: 0x1D0CA, offset: 0x1D0CA, size: 0x8, addend: 0x0, symName: __ZNSt3__116allocator_traitsINS_9allocatorINS_11__tree_nodeINS_6vectorIiNS1_IiEEEEPvEEEEE7destroyB7v160006IS5_vvEEvRS8_PT_, symObjAddr: 0xC4E8, symBinAddr: 0x1000101A8, symSize: 0x28 }
  - { offsetInCU: 0x1D104, offset: 0x1D104, size: 0x8, addend: 0x0, symName: __ZNSt3__122__tree_key_value_typesINS_6vectorIiNS_9allocatorIiEEEEE9__get_ptrB7v160006ERS4_, symObjAddr: 0xC510, symBinAddr: 0x1000101D0, symSize: 0x14 }
  - { offsetInCU: 0x1D128, offset: 0x1D128, size: 0x8, addend: 0x0, symName: __ZNSt3__116allocator_traitsINS_9allocatorINS_11__tree_nodeINS_6vectorIiNS1_IiEEEEPvEEEEE10deallocateB7v160006ERS8_PS7_m, symObjAddr: 0xC524, symBinAddr: 0x1000101E4, symSize: 0x34 }
  - { offsetInCU: 0x1D16A, offset: 0x1D16A, size: 0x8, addend: 0x0, symName: __ZNSt3__117__compressed_pairINS_15__tree_end_nodeIPNS_16__tree_node_baseIPvEEEENS_9allocatorINS_11__tree_nodeINS_6vectorIiNS7_IiEEEES3_EEEEE6secondB7v160006Ev, symObjAddr: 0xC558, symBinAddr: 0x100010218, symSize: 0x24 }
  - { offsetInCU: 0x1D190, offset: 0x1D190, size: 0x8, addend: 0x0, symName: __ZNSt3__122__compressed_pair_elemINS_9allocatorINS_11__tree_nodeINS_6vectorIiNS1_IiEEEEPvEEEELi1ELb1EE5__getB7v160006Ev, symObjAddr: 0xC57C, symBinAddr: 0x10001023C, symSize: 0x14 }
  - { offsetInCU: 0x1D1B6, offset: 0x1D1B6, size: 0x8, addend: 0x0, symName: __ZNSt3__19allocatorINS_11__tree_nodeINS_6vectorIiNS0_IiEEEEPvEEE10deallocateB7v160006EPS6_m, symObjAddr: 0xC590, symBinAddr: 0x100010250, symSize: 0x44 }
  - { offsetInCU: 0x1D1F8, offset: 0x1D1F8, size: 0x8, addend: 0x0, symName: __ZNKSt3__16__treeINS_6vectorIiNS_9allocatorIiEEEENS_4lessIS4_EENS2_IS4_EEE10__end_nodeB7v160006Ev, symObjAddr: 0xC5D4, symBinAddr: 0x100010294, symSize: 0x2C }
  - { offsetInCU: 0x1D21E, offset: 0x1D21E, size: 0x8, addend: 0x0, symName: __ZNKSt3__117__compressed_pairINS_15__tree_end_nodeIPNS_16__tree_node_baseIPvEEEENS_9allocatorINS_11__tree_nodeINS_6vectorIiNS7_IiEEEES3_EEEEE5firstB7v160006Ev, symObjAddr: 0xC600, symBinAddr: 0x1000102C0, symSize: 0x24 }
  - { offsetInCU: 0x1D244, offset: 0x1D244, size: 0x8, addend: 0x0, symName: __ZNKSt3__122__compressed_pair_elemINS_15__tree_end_nodeIPNS_16__tree_node_baseIPvEEEELi0ELb0EE5__getB7v160006Ev, symObjAddr: 0xC624, symBinAddr: 0x1000102E4, symSize: 0x14 }
  - { offsetInCU: 0x1D26A, offset: 0x1D26A, size: 0x8, addend: 0x0, symName: __ZNSt3__16__treeINS_6vectorIiNS_9allocatorIiEEEENS_4lessIS4_EENS2_IS4_EEE4findIS4_EENS_15__tree_iteratorIS4_PNS_11__tree_nodeIS4_PvEElEERKT_, symObjAddr: 0xC638, symBinAddr: 0x1000102F8, symSize: 0xF8 }
  - { offsetInCU: 0x1D2B9, offset: 0x1D2B9, size: 0x8, addend: 0x0, symName: __ZNSt3__121__tree_const_iteratorINS_6vectorIiNS_9allocatorIiEEEEPNS_11__tree_nodeIS4_PvEElEC1B7v160006ENS_15__tree_iteratorIS4_S8_lEE, symObjAddr: 0xC730, symBinAddr: 0x1000103F0, symSize: 0x34 }
  - { offsetInCU: 0x1D2F2, offset: 0x1D2F2, size: 0x8, addend: 0x0, symName: __ZNSt3__16__treeINS_6vectorIiNS_9allocatorIiEEEENS_4lessIS4_EENS2_IS4_EEE13__lower_boundIS4_EENS_15__tree_iteratorIS4_PNS_11__tree_nodeIS4_PvEElEERKT_SE_PNS_15__tree_end_nodeIPNS_16__tree_node_baseISC_EEEE, symObjAddr: 0xC764, symBinAddr: 0x100010424, symSize: 0xA4 }
  - { offsetInCU: 0x1D350, offset: 0x1D350, size: 0x8, addend: 0x0, symName: __ZNSt3__16__treeINS_6vectorIiNS_9allocatorIiEEEENS_4lessIS4_EENS2_IS4_EEE3endB7v160006Ev, symObjAddr: 0xC83C, symBinAddr: 0x1000104FC, symSize: 0x34 }
  - { offsetInCU: 0x1D376, offset: 0x1D376, size: 0x8, addend: 0x0, symName: __ZNSt3__16__treeINS_6vectorIiNS_9allocatorIiEEEENS_4lessIS4_EENS2_IS4_EEE10value_compB7v160006Ev, symObjAddr: 0xC870, symBinAddr: 0x100010530, symSize: 0x28 }
  - { offsetInCU: 0x1D39C, offset: 0x1D39C, size: 0x8, addend: 0x0, symName: __ZNKSt3__14lessINS_6vectorIiNS_9allocatorIiEEEEEclB7v160006ERKS4_S7_, symObjAddr: 0xC898, symBinAddr: 0x100010558, symSize: 0x34 }
  - { offsetInCU: 0x1D3E0, offset: 0x1D3E0, size: 0x8, addend: 0x0, symName: __ZNKSt3__115__tree_iteratorINS_6vectorIiNS_9allocatorIiEEEEPNS_11__tree_nodeIS4_PvEElEdeB7v160006Ev, symObjAddr: 0xC8CC, symBinAddr: 0x10001058C, symSize: 0x28 }
  - { offsetInCU: 0x1D406, offset: 0x1D406, size: 0x8, addend: 0x0, symName: __ZNSt3__115__tree_iteratorINS_6vectorIiNS_9allocatorIiEEEEPNS_11__tree_nodeIS4_PvEElEC1B7v160006EPNS_15__tree_end_nodeIPNS_16__tree_node_baseIS6_EEEE, symObjAddr: 0xC8F4, symBinAddr: 0x1000105B4, symSize: 0x34 }
  - { offsetInCU: 0x1D43F, offset: 0x1D43F, size: 0x8, addend: 0x0, symName: __ZNSt3__115__tree_iteratorINS_6vectorIiNS_9allocatorIiEEEEPNS_11__tree_nodeIS4_PvEElEC2B7v160006EPNS_15__tree_end_nodeIPNS_16__tree_node_baseIS6_EEEE, symObjAddr: 0xC928, symBinAddr: 0x1000105E8, symSize: 0x20 }
  - { offsetInCU: 0x1D478, offset: 0x1D478, size: 0x8, addend: 0x0, symName: __ZNSt3__117__compressed_pairImNS_4lessINS_6vectorIiNS_9allocatorIiEEEEEEE6secondB7v160006Ev, symObjAddr: 0xC978, symBinAddr: 0x100010638, symSize: 0x24 }
  - { offsetInCU: 0x1D49E, offset: 0x1D49E, size: 0x8, addend: 0x0, symName: __ZNSt3__122__compressed_pair_elemINS_4lessINS_6vectorIiNS_9allocatorIiEEEEEELi1ELb1EE5__getB7v160006Ev, symObjAddr: 0xC99C, symBinAddr: 0x10001065C, symSize: 0x14 }
  - { offsetInCU: 0x1D4CE, offset: 0x1D4CE, size: 0x8, addend: 0x0, symName: __ZNKSt3__16__lessIiiEclB7v160006ERKiS3_, symObjAddr: 0xCBF8, symBinAddr: 0x1000108B8, symSize: 0x34 }
  - { offsetInCU: 0x1D510, offset: 0x1D510, size: 0x8, addend: 0x0, symName: __ZNKSt3__115__tree_iteratorINS_6vectorIiNS_9allocatorIiEEEEPNS_11__tree_nodeIS4_PvEElE8__get_npB7v160006Ev, symObjAddr: 0xCC2C, symBinAddr: 0x1000108EC, symSize: 0x18 }
  - { offsetInCU: 0x1D536, offset: 0x1D536, size: 0x8, addend: 0x0, symName: __ZNSt3__121__tree_const_iteratorINS_6vectorIiNS_9allocatorIiEEEEPNS_11__tree_nodeIS4_PvEElEC2B7v160006ENS_15__tree_iteratorIS4_S8_lEE, symObjAddr: 0xCC44, symBinAddr: 0x100010904, symSize: 0x20 }
  - { offsetInCU: 0x1D56F, offset: 0x1D56F, size: 0x8, addend: 0x0, symName: __ZNSt3__16__treeINS_6vectorIiNS_9allocatorIiEEEENS_4lessIS4_EENS2_IS4_EEE15__insert_uniqueB7v160006EOS4_, symObjAddr: 0xCC64, symBinAddr: 0x100010924, symSize: 0x50 }
  - { offsetInCU: 0x1D5A4, offset: 0x1D5A4, size: 0x8, addend: 0x0, symName: __ZNSt3__14pairINS_21__tree_const_iteratorINS_6vectorIiNS_9allocatorIiEEEEPNS_11__tree_nodeIS5_PvEElEEbEC1B7v160006INS_15__tree_iteratorIS5_S9_lEEbLS7_0EEEONS0_IT_T0_EE, symObjAddr: 0xCCB4, symBinAddr: 0x100010974, symSize: 0x34 }
  - { offsetInCU: 0x1D5F5, offset: 0x1D5F5, size: 0x8, addend: 0x0, symName: __ZNSt3__16__treeINS_6vectorIiNS_9allocatorIiEEEENS_4lessIS4_EENS2_IS4_EEE25__emplace_unique_key_argsIS4_JS4_EEENS_4pairINS_15__tree_iteratorIS4_PNS_11__tree_nodeIS4_PvEElEEbEERKT_DpOT0_, symObjAddr: 0xCCE8, symBinAddr: 0x1000109A8, symSize: 0xF0 }
  - { offsetInCU: 0x1D6A1, offset: 0x1D6A1, size: 0x8, addend: 0x0, symName: __ZNSt3__122__tree_key_value_typesINS_6vectorIiNS_9allocatorIiEEEEE9__get_keyB7v160006ERKS4_, symObjAddr: 0xCDD8, symBinAddr: 0x100010A98, symSize: 0x14 }
  - { offsetInCU: 0x1D6C5, offset: 0x1D6C5, size: 0x8, addend: 0x0, symName: __ZNSt3__16__treeINS_6vectorIiNS_9allocatorIiEEEENS_4lessIS4_EENS2_IS4_EEE12__find_equalIS4_EERPNS_16__tree_node_baseIPvEERPNS_15__tree_end_nodeISD_EERKT_, symObjAddr: 0xCDEC, symBinAddr: 0x100010AAC, symSize: 0x184 }
  - { offsetInCU: 0x1D732, offset: 0x1D732, size: 0x8, addend: 0x0, symName: __ZNSt3__16__treeINS_6vectorIiNS_9allocatorIiEEEENS_4lessIS4_EENS2_IS4_EEE16__construct_nodeIJS4_EEENS_10unique_ptrINS_11__tree_nodeIS4_PvEENS_22__tree_node_destructorINS2_ISD_EEEEEEDpOT_, symObjAddr: 0xCF70, symBinAddr: 0x100010C30, symSize: 0x108 }
  - { offsetInCU: 0x1D793, offset: 0x1D793, size: 0x8, addend: 0x0, symName: __ZNSt3__16__treeINS_6vectorIiNS_9allocatorIiEEEENS_4lessIS4_EENS2_IS4_EEE16__insert_node_atEPNS_15__tree_end_nodeIPNS_16__tree_node_baseIPvEEEERSD_SD_, symObjAddr: 0xD078, symBinAddr: 0x100010D38, symSize: 0xCC }
  - { offsetInCU: 0x1D7E8, offset: 0x1D7E8, size: 0x8, addend: 0x0, symName: __ZNKSt3__110unique_ptrINS_11__tree_nodeINS_6vectorIiNS_9allocatorIiEEEEPvEENS_22__tree_node_destructorINS3_IS7_EEEEE3getB7v160006Ev, symObjAddr: 0xD144, symBinAddr: 0x100010E04, symSize: 0x28 }
  - { offsetInCU: 0x1D80E, offset: 0x1D80E, size: 0x8, addend: 0x0, symName: __ZNSt3__110unique_ptrINS_11__tree_nodeINS_6vectorIiNS_9allocatorIiEEEEPvEENS_22__tree_node_destructorINS3_IS7_EEEEE7releaseB7v160006Ev, symObjAddr: 0xD16C, symBinAddr: 0x100010E2C, symSize: 0x44 }
  - { offsetInCU: 0x1D843, offset: 0x1D843, size: 0x8, addend: 0x0, symName: __ZNSt3__110unique_ptrINS_11__tree_nodeINS_6vectorIiNS_9allocatorIiEEEEPvEENS_22__tree_node_destructorINS3_IS7_EEEEED1B7v160006Ev, symObjAddr: 0xD1B0, symBinAddr: 0x100010E70, symSize: 0x2C }
  - { offsetInCU: 0x1D86D, offset: 0x1D86D, size: 0x8, addend: 0x0, symName: __ZNSt3__115__tree_iteratorINS_6vectorIiNS_9allocatorIiEEEEPNS_11__tree_nodeIS4_PvEElEC1B7v160006ES8_, symObjAddr: 0xD1DC, symBinAddr: 0x100010E9C, symSize: 0x34 }
  - { offsetInCU: 0x1D8B1, offset: 0x1D8B1, size: 0x8, addend: 0x0, symName: __ZNSt3__14pairINS_15__tree_iteratorINS_6vectorIiNS_9allocatorIiEEEEPNS_11__tree_nodeIS5_PvEElEEbEC1B7v160006ISA_RbLS7_0EEEOT_OT0_, symObjAddr: 0xD210, symBinAddr: 0x100010ED0, symSize: 0x3C }
  - { offsetInCU: 0x1D90F, offset: 0x1D90F, size: 0x8, addend: 0x0, symName: __ZNKSt3__16__treeINS_6vectorIiNS_9allocatorIiEEEENS_4lessIS4_EENS2_IS4_EEE10__root_ptrEv, symObjAddr: 0xD24C, symBinAddr: 0x100010F0C, symSize: 0x24 }
  - { offsetInCU: 0x1D935, offset: 0x1D935, size: 0x8, addend: 0x0, symName: __ZNSt3__116allocator_traitsINS_9allocatorINS_11__tree_nodeINS_6vectorIiNS1_IiEEEEPvEEEEE8allocateB7v160006ERS8_m, symObjAddr: 0xD270, symBinAddr: 0x100010F30, symSize: 0x2C }
  - { offsetInCU: 0x1D968, offset: 0x1D968, size: 0x8, addend: 0x0, symName: __ZNSt3__122__tree_node_destructorINS_9allocatorINS_11__tree_nodeINS_6vectorIiNS1_IiEEEEPvEEEEEC1B7v160006ERS8_b, symObjAddr: 0xD29C, symBinAddr: 0x100010F5C, symSize: 0x48 }
  - { offsetInCU: 0x1D9B6, offset: 0x1D9B6, size: 0x8, addend: 0x0, symName: __ZNSt3__110unique_ptrINS_11__tree_nodeINS_6vectorIiNS_9allocatorIiEEEEPvEENS_22__tree_node_destructorINS3_IS7_EEEEEC1B7v160006ILb1EvEEPS7_NS_16__dependent_typeINS_27__unique_ptr_deleter_sfinaeISA_EEXT_EE20__good_rval_ref_typeE, symObjAddr: 0xD2E4, symBinAddr: 0x100010FA4, symSize: 0x3C }
  - { offsetInCU: 0x1DA07, offset: 0x1DA07, size: 0x8, addend: 0x0, symName: __ZNSt3__116allocator_traitsINS_9allocatorINS_11__tree_nodeINS_6vectorIiNS1_IiEEEEPvEEEEE9constructB7v160006IS5_JS5_EvEEvRS8_PT_DpOT0_, symObjAddr: 0xD320, symBinAddr: 0x100010FE0, symSize: 0x34 }
  - { offsetInCU: 0x1DA5E, offset: 0x1DA5E, size: 0x8, addend: 0x0, symName: __ZNKSt3__110unique_ptrINS_11__tree_nodeINS_6vectorIiNS_9allocatorIiEEEEPvEENS_22__tree_node_destructorINS3_IS7_EEEEEptB7v160006Ev, symObjAddr: 0xD354, symBinAddr: 0x100011014, symSize: 0x28 }
  - { offsetInCU: 0x1DA84, offset: 0x1DA84, size: 0x8, addend: 0x0, symName: __ZNSt3__110unique_ptrINS_11__tree_nodeINS_6vectorIiNS_9allocatorIiEEEEPvEENS_22__tree_node_destructorINS3_IS7_EEEEE11get_deleterB7v160006Ev, symObjAddr: 0xD37C, symBinAddr: 0x10001103C, symSize: 0x24 }
  - { offsetInCU: 0x1DAAA, offset: 0x1DAAA, size: 0x8, addend: 0x0, symName: __ZNSt3__19allocatorINS_11__tree_nodeINS_6vectorIiNS0_IiEEEEPvEEE8allocateB7v160006Em, symObjAddr: 0xD3A0, symBinAddr: 0x100011060, symSize: 0x5C }
  - { offsetInCU: 0x1DAE8, offset: 0x1DAE8, size: 0x8, addend: 0x0, symName: __ZNSt3__116allocator_traitsINS_9allocatorINS_11__tree_nodeINS_6vectorIiNS1_IiEEEEPvEEEEE8max_sizeB7v160006IS8_vEEmRKS8_, symObjAddr: 0xD3FC, symBinAddr: 0x1000110BC, symSize: 0x24 }
  - { offsetInCU: 0x1DB16, offset: 0x1DB16, size: 0x8, addend: 0x0, symName: __ZNKSt3__19allocatorINS_11__tree_nodeINS_6vectorIiNS0_IiEEEEPvEEE8max_sizeB7v160006Ev, symObjAddr: 0xD420, symBinAddr: 0x1000110E0, symSize: 0x20 }
  - { offsetInCU: 0x1DB3C, offset: 0x1DB3C, size: 0x8, addend: 0x0, symName: __ZNSt3__122__tree_node_destructorINS_9allocatorINS_11__tree_nodeINS_6vectorIiNS1_IiEEEEPvEEEEEC2B7v160006ERS8_b, symObjAddr: 0xD440, symBinAddr: 0x100011100, symSize: 0x38 }
  - { offsetInCU: 0x1DB84, offset: 0x1DB84, size: 0x8, addend: 0x0, symName: __ZNSt3__110unique_ptrINS_11__tree_nodeINS_6vectorIiNS_9allocatorIiEEEEPvEENS_22__tree_node_destructorINS3_IS7_EEEEEC2B7v160006ILb1EvEEPS7_NS_16__dependent_typeINS_27__unique_ptr_deleter_sfinaeISA_EEXT_EE20__good_rval_ref_typeE, symObjAddr: 0xD478, symBinAddr: 0x100011138, symSize: 0x48 }
  - { offsetInCU: 0x1DBD5, offset: 0x1DBD5, size: 0x8, addend: 0x0, symName: __ZNSt3__117__compressed_pairIPNS_11__tree_nodeINS_6vectorIiNS_9allocatorIiEEEEPvEENS_22__tree_node_destructorINS3_IS7_EEEEEC1B7v160006IRS8_SB_EEOT_OT0_, symObjAddr: 0xD4C0, symBinAddr: 0x100011180, symSize: 0x3C }
  - { offsetInCU: 0x1DC2D, offset: 0x1DC2D, size: 0x8, addend: 0x0, symName: __ZNSt3__117__compressed_pairIPNS_11__tree_nodeINS_6vectorIiNS_9allocatorIiEEEEPvEENS_22__tree_node_destructorINS3_IS7_EEEEEC2B7v160006IRS8_SB_EEOT_OT0_, symObjAddr: 0xD4FC, symBinAddr: 0x1000111BC, symSize: 0x48 }
  - { offsetInCU: 0x1DC85, offset: 0x1DC85, size: 0x8, addend: 0x0, symName: __ZNSt3__122__compressed_pair_elemIPNS_11__tree_nodeINS_6vectorIiNS_9allocatorIiEEEEPvEELi0ELb0EEC2B7v160006IRS8_vEEOT_, symObjAddr: 0xD544, symBinAddr: 0x100011204, symSize: 0x24 }
  - { offsetInCU: 0x1DCC7, offset: 0x1DCC7, size: 0x8, addend: 0x0, symName: __ZNSt3__122__compressed_pair_elemINS_22__tree_node_destructorINS_9allocatorINS_11__tree_nodeINS_6vectorIiNS2_IiEEEEPvEEEEEELi1ELb0EEC2B7v160006ISA_vEEOT_, symObjAddr: 0xD568, symBinAddr: 0x100011228, symSize: 0x24 }
  - { offsetInCU: 0x1DD09, offset: 0x1DD09, size: 0x8, addend: 0x0, symName: __ZNSt3__19allocatorINS_11__tree_nodeINS_6vectorIiNS0_IiEEEEPvEEE9constructB7v160006IS4_JS4_EEEvPT_DpOT0_, symObjAddr: 0xD58C, symBinAddr: 0x10001124C, symSize: 0x30 }
  - { offsetInCU: 0x1DD5F, offset: 0x1DD5F, size: 0x8, addend: 0x0, symName: __ZNSt3__16vectorIiNS_9allocatorIiEEEC1B7v160006EOS3_, symObjAddr: 0xD5BC, symBinAddr: 0x10001127C, symSize: 0x34 }
  - { offsetInCU: 0x1DD9A, offset: 0x1DD9A, size: 0x8, addend: 0x0, symName: __ZNSt3__16vectorIiNS_9allocatorIiEEEC2B7v160006EOS3_, symObjAddr: 0xD5F0, symBinAddr: 0x1000112B0, symSize: 0xDC }
  - { offsetInCU: 0x1DDD5, offset: 0x1DDD5, size: 0x8, addend: 0x0, symName: __ZNKSt3__117__compressed_pairIPNS_11__tree_nodeINS_6vectorIiNS_9allocatorIiEEEEPvEENS_22__tree_node_destructorINS3_IS7_EEEEE5firstB7v160006Ev, symObjAddr: 0xD6E0, symBinAddr: 0x1000113A0, symSize: 0x24 }
  - { offsetInCU: 0x1DDFB, offset: 0x1DDFB, size: 0x8, addend: 0x0, symName: __ZNKSt3__122__compressed_pair_elemIPNS_11__tree_nodeINS_6vectorIiNS_9allocatorIiEEEEPvEELi0ELb0EE5__getB7v160006Ev, symObjAddr: 0xD704, symBinAddr: 0x1000113C4, symSize: 0x14 }
  - { offsetInCU: 0x1DE21, offset: 0x1DE21, size: 0x8, addend: 0x0, symName: __ZNSt3__117__compressed_pairIPNS_11__tree_nodeINS_6vectorIiNS_9allocatorIiEEEEPvEENS_22__tree_node_destructorINS3_IS7_EEEEE6secondB7v160006Ev, symObjAddr: 0xD718, symBinAddr: 0x1000113D8, symSize: 0x28 }
  - { offsetInCU: 0x1DE47, offset: 0x1DE47, size: 0x8, addend: 0x0, symName: __ZNSt3__122__compressed_pair_elemINS_22__tree_node_destructorINS_9allocatorINS_11__tree_nodeINS_6vectorIiNS2_IiEEEEPvEEEEEELi1ELb0EE5__getB7v160006Ev, symObjAddr: 0xD740, symBinAddr: 0x100011400, symSize: 0x14 }
  - { offsetInCU: 0x1DE6D, offset: 0x1DE6D, size: 0x8, addend: 0x0, symName: __ZNSt3__16__treeINS_6vectorIiNS_9allocatorIiEEEENS_4lessIS4_EENS2_IS4_EEE4sizeB7v160006Ev, symObjAddr: 0xDA80, symBinAddr: 0x100011740, symSize: 0x28 }
  - { offsetInCU: 0x1DE93, offset: 0x1DE93, size: 0x8, addend: 0x0, symName: __ZNKSt3__116__tree_node_baseIPvE15__parent_unsafeB7v160006Ev, symObjAddr: 0xDAA8, symBinAddr: 0x100011768, symSize: 0x18 }
  - { offsetInCU: 0x1DEB9, offset: 0x1DEB9, size: 0x8, addend: 0x0, symName: __ZNSt3__116__tree_node_baseIPvE12__set_parentB7v160006EPS2_, symObjAddr: 0xDC90, symBinAddr: 0x100011950, symSize: 0x20 }
  - { offsetInCU: 0x1DEEE, offset: 0x1DEEE, size: 0x8, addend: 0x0, symName: __ZNSt3__117__compressed_pairImNS_4lessINS_6vectorIiNS_9allocatorIiEEEEEEE5firstB7v160006Ev, symObjAddr: 0xDCB0, symBinAddr: 0x100011970, symSize: 0x24 }
  - { offsetInCU: 0x1DF14, offset: 0x1DF14, size: 0x8, addend: 0x0, symName: __ZNSt3__117__compressed_pairIPNS_11__tree_nodeINS_6vectorIiNS_9allocatorIiEEEEPvEENS_22__tree_node_destructorINS3_IS7_EEEEE5firstB7v160006Ev, symObjAddr: 0xDCD4, symBinAddr: 0x100011994, symSize: 0x24 }
  - { offsetInCU: 0x1DF3A, offset: 0x1DF3A, size: 0x8, addend: 0x0, symName: __ZNSt3__122__compressed_pair_elemIPNS_11__tree_nodeINS_6vectorIiNS_9allocatorIiEEEEPvEELi0ELb0EE5__getB7v160006Ev, symObjAddr: 0xDCF8, symBinAddr: 0x1000119B8, symSize: 0x14 }
  - { offsetInCU: 0x1DF60, offset: 0x1DF60, size: 0x8, addend: 0x0, symName: __ZNSt3__110unique_ptrINS_11__tree_nodeINS_6vectorIiNS_9allocatorIiEEEEPvEENS_22__tree_node_destructorINS3_IS7_EEEEED2B7v160006Ev, symObjAddr: 0xDD0C, symBinAddr: 0x1000119CC, symSize: 0x30 }
  - { offsetInCU: 0x1DF8A, offset: 0x1DF8A, size: 0x8, addend: 0x0, symName: __ZNSt3__110unique_ptrINS_11__tree_nodeINS_6vectorIiNS_9allocatorIiEEEEPvEENS_22__tree_node_destructorINS3_IS7_EEEEE5resetB7v160006EPS7_, symObjAddr: 0xDD3C, symBinAddr: 0x1000119FC, symSize: 0x78 }
  - { offsetInCU: 0x1DFCE, offset: 0x1DFCE, size: 0x8, addend: 0x0, symName: __ZNSt3__122__tree_node_destructorINS_9allocatorINS_11__tree_nodeINS_6vectorIiNS1_IiEEEEPvEEEEEclB7v160006EPS7_, symObjAddr: 0xDDB4, symBinAddr: 0x100011A74, symSize: 0x88 }
  - { offsetInCU: 0x1E003, offset: 0x1E003, size: 0x8, addend: 0x0, symName: __ZNSt3__115__tree_iteratorINS_6vectorIiNS_9allocatorIiEEEEPNS_11__tree_nodeIS4_PvEElEC2B7v160006ES8_, symObjAddr: 0xDE3C, symBinAddr: 0x100011AFC, symSize: 0x20 }
  - { offsetInCU: 0x1E03C, offset: 0x1E03C, size: 0x8, addend: 0x0, symName: __ZNSt3__14pairINS_15__tree_iteratorINS_6vectorIiNS_9allocatorIiEEEEPNS_11__tree_nodeIS5_PvEElEEbEC2B7v160006ISA_RbLS7_0EEEOT_OT0_, symObjAddr: 0xDE5C, symBinAddr: 0x100011B1C, symSize: 0x38 }
  - { offsetInCU: 0x1E09A, offset: 0x1E09A, size: 0x8, addend: 0x0, symName: __ZNSt3__14pairINS_21__tree_const_iteratorINS_6vectorIiNS_9allocatorIiEEEEPNS_11__tree_nodeIS5_PvEElEEbEC2B7v160006INS_15__tree_iteratorIS5_S9_lEEbLS7_0EEEONS0_IT_T0_EE, symObjAddr: 0xDE94, symBinAddr: 0x100011B54, symSize: 0x50 }
  - { offsetInCU: 0x1E0EB, offset: 0x1E0EB, size: 0x8, addend: 0x0, symName: __ZNSt3__16vectorINS_4pairIiiEENS_9allocatorIS2_EEE11__make_iterB7v160006EPS2_, symObjAddr: 0xDEE4, symBinAddr: 0x100011BA4, symSize: 0x34 }
  - { offsetInCU: 0x1E120, offset: 0x1E120, size: 0x8, addend: 0x0, symName: __ZNSt3__111__wrap_iterIPNS_4pairIiiEEEC1B7v160006EPKvS3_, symObjAddr: 0xDF18, symBinAddr: 0x100011BD8, symSize: 0x3C }
  - { offsetInCU: 0x1E166, offset: 0x1E166, size: 0x8, addend: 0x0, symName: __ZNSt3__111__wrap_iterIPNS_4pairIiiEEEC2B7v160006EPKvS3_, symObjAddr: 0xDF54, symBinAddr: 0x100011C14, symSize: 0x24 }
  - { offsetInCU: 0x1E1AC, offset: 0x1E1AC, size: 0x8, addend: 0x0, symName: __ZNSt3__16vectorIiNS_9allocatorIiEEE22__construct_one_at_endB7v160006IJRKiEEEvDpOT_, symObjAddr: 0xDF78, symBinAddr: 0x100011C38, symSize: 0x90 }
  - { offsetInCU: 0x1E1FB, offset: 0x1E1FB, size: 0x8, addend: 0x0, symName: __ZNSt3__16vectorIiNS_9allocatorIiEEE21__push_back_slow_pathIRKiEEvOT_, symObjAddr: 0xE008, symBinAddr: 0x100011CC8, symSize: 0xD8 }
  - { offsetInCU: 0x1E259, offset: 0x1E259, size: 0x8, addend: 0x0, symName: __ZNSt3__116allocator_traitsINS_9allocatorIiEEE9constructB7v160006IiJRKiEvEEvRS2_PT_DpOT0_, symObjAddr: 0xE0E0, symBinAddr: 0x100011DA0, symSize: 0x34 }
  - { offsetInCU: 0x1E2B0, offset: 0x1E2B0, size: 0x8, addend: 0x0, symName: __ZNSt3__19allocatorIiE9constructB7v160006IiJRKiEEEvPT_DpOT0_, symObjAddr: 0xE114, symBinAddr: 0x100011DD4, symSize: 0x28 }
  - { offsetInCU: 0x1E306, offset: 0x1E306, size: 0x8, addend: 0x0, symName: __ZNSt3__114__split_bufferIiRNS_9allocatorIiEEEC1EmmS3_, symObjAddr: 0xE13C, symBinAddr: 0x100011DFC, symSize: 0x44 }
  - { offsetInCU: 0x1E35C, offset: 0x1E35C, size: 0x8, addend: 0x0, symName: __ZNSt3__114__split_bufferIiRNS_9allocatorIiEEED1Ev, symObjAddr: 0xE298, symBinAddr: 0x100011F58, symSize: 0x2C }
  - { offsetInCU: 0x1E388, offset: 0x1E388, size: 0x8, addend: 0x0, symName: __ZNSt3__114__split_bufferIiRNS_9allocatorIiEEEC2EmmS3_, symObjAddr: 0xE2C4, symBinAddr: 0x100011F84, symSize: 0xD4 }
  - { offsetInCU: 0x1E3FB, offset: 0x1E3FB, size: 0x8, addend: 0x0, symName: __ZNSt3__117__compressed_pairIPiRNS_9allocatorIiEEEC1B7v160006IDnS4_EEOT_OT0_, symObjAddr: 0xE398, symBinAddr: 0x100012058, symSize: 0x3C }
  - { offsetInCU: 0x1E453, offset: 0x1E453, size: 0x8, addend: 0x0, symName: __ZNSt3__114__split_bufferIiRNS_9allocatorIiEEE7__allocB7v160006Ev, symObjAddr: 0xE3D4, symBinAddr: 0x100012094, symSize: 0x28 }
  - { offsetInCU: 0x1E479, offset: 0x1E479, size: 0x8, addend: 0x0, symName: __ZNSt3__114__split_bufferIiRNS_9allocatorIiEEE9__end_capB7v160006Ev, symObjAddr: 0xE3FC, symBinAddr: 0x1000120BC, symSize: 0x28 }
  - { offsetInCU: 0x1E49F, offset: 0x1E49F, size: 0x8, addend: 0x0, symName: __ZNSt3__117__compressed_pairIPiRNS_9allocatorIiEEEC2B7v160006IDnS4_EEOT_OT0_, symObjAddr: 0xE424, symBinAddr: 0x1000120E4, symSize: 0x48 }
  - { offsetInCU: 0x1E4F7, offset: 0x1E4F7, size: 0x8, addend: 0x0, symName: __ZNSt3__122__compressed_pair_elemIRNS_9allocatorIiEELi1ELb0EEC2B7v160006IS3_vEEOT_, symObjAddr: 0xE46C, symBinAddr: 0x10001212C, symSize: 0x20 }
  - { offsetInCU: 0x1E539, offset: 0x1E539, size: 0x8, addend: 0x0, symName: __ZNSt3__117__compressed_pairIPiRNS_9allocatorIiEEE6secondB7v160006Ev, symObjAddr: 0xE48C, symBinAddr: 0x10001214C, symSize: 0x28 }
  - { offsetInCU: 0x1E55F, offset: 0x1E55F, size: 0x8, addend: 0x0, symName: __ZNSt3__122__compressed_pair_elemIRNS_9allocatorIiEELi1ELb0EE5__getB7v160006Ev, symObjAddr: 0xE4B4, symBinAddr: 0x100012174, symSize: 0x18 }
  - { offsetInCU: 0x1E585, offset: 0x1E585, size: 0x8, addend: 0x0, symName: __ZNSt3__117__compressed_pairIPiRNS_9allocatorIiEEE5firstB7v160006Ev, symObjAddr: 0xE4CC, symBinAddr: 0x10001218C, symSize: 0x24 }
  - { offsetInCU: 0x1E5CF, offset: 0x1E5CF, size: 0x8, addend: 0x0, symName: __ZNKSt3__111__move_loopINS_17_ClassicAlgPolicyEEclB7v160006INS_16reverse_iteratorIPiEES6_S6_EENS_4pairIT_T1_EES8_T0_S9_, symObjAddr: 0xE894, symBinAddr: 0x100012554, symSize: 0xA0 }
  - { offsetInCU: 0x1E63A, offset: 0x1E63A, size: 0x8, addend: 0x0, symName: __ZNSt3__18_IterOpsINS_17_ClassicAlgPolicyEE11__iter_moveB7v160006IRNS_16reverse_iteratorIPiEEEENS_9enable_ifIXsr12is_referenceIDTdeclsr3stdE7declvalIRT_EEEEE5valueEDTclsr3stdE4movedeclsr3stdE7declvalISA_EEEEE4typeEOS9_, symObjAddr: 0xEA80, symBinAddr: 0x100012740, symSize: 0x28 }
  - { offsetInCU: 0x1E666, offset: 0x1E666, size: 0x8, addend: 0x0, symName: __ZNSt3__18_IterOpsINS_17_ClassicAlgPolicyEE25__validate_iter_referenceB7v160006IRNS_16reverse_iteratorIPiEEEEvv, symObjAddr: 0xEAA8, symBinAddr: 0x100012768, symSize: 0x4 }
  - { offsetInCU: 0x1E684, offset: 0x1E684, size: 0x8, addend: 0x0, symName: __ZNSt3__118__unwrap_iter_implINS_16reverse_iteratorIPiEELb0EE8__unwrapB7v160006ES3_, symObjAddr: 0xEAAC, symBinAddr: 0x10001276C, symSize: 0x24 }
  - { offsetInCU: 0x1E6AD, offset: 0x1E6AD, size: 0x8, addend: 0x0, symName: __ZNSt3__14pairINS_16reverse_iteratorIPiEES3_EC1B7v160006IS3_S3_LPv0EEEOT_OT0_, symObjAddr: 0xEAD0, symBinAddr: 0x100012790, symSize: 0x3C }
  - { offsetInCU: 0x1E70B, offset: 0x1E70B, size: 0x8, addend: 0x0, symName: __ZNSt3__14pairINS_16reverse_iteratorIPiEES3_EC2B7v160006IS3_S3_LPv0EEEOT_OT0_, symObjAddr: 0xEB0C, symBinAddr: 0x1000127CC, symSize: 0x34 }
  - { offsetInCU: 0x1E769, offset: 0x1E769, size: 0x8, addend: 0x0, symName: __ZNSt3__118__unwrap_iter_implINS_16reverse_iteratorIPiEELb0EE8__rewrapB7v160006ES3_S3_, symObjAddr: 0xEB40, symBinAddr: 0x100012800, symSize: 0x2C }
  - { offsetInCU: 0x1E796, offset: 0x1E796, size: 0x8, addend: 0x0, symName: __ZNSt3__114__split_bufferIiRNS_9allocatorIiEEED2Ev, symObjAddr: 0xEB6C, symBinAddr: 0x10001282C, symSize: 0x8C }
  - { offsetInCU: 0x1E7C2, offset: 0x1E7C2, size: 0x8, addend: 0x0, symName: __ZNSt3__114__split_bufferIiRNS_9allocatorIiEEE5clearB7v160006Ev, symObjAddr: 0xEBF8, symBinAddr: 0x1000128B8, symSize: 0x28 }
  - { offsetInCU: 0x1E7E8, offset: 0x1E7E8, size: 0x8, addend: 0x0, symName: __ZNKSt3__114__split_bufferIiRNS_9allocatorIiEEE8capacityB7v160006Ev, symObjAddr: 0xEC20, symBinAddr: 0x1000128E0, symSize: 0x40 }
  - { offsetInCU: 0x1E80E, offset: 0x1E80E, size: 0x8, addend: 0x0, symName: __ZNSt3__114__split_bufferIiRNS_9allocatorIiEEE17__destruct_at_endB7v160006EPi, symObjAddr: 0xEC60, symBinAddr: 0x100012920, symSize: 0x2C }
  - { offsetInCU: 0x1E842, offset: 0x1E842, size: 0x8, addend: 0x0, symName: __ZNSt3__114__split_bufferIiRNS_9allocatorIiEEE17__destruct_at_endB7v160006EPiNS_17integral_constantIbLb0EEE, symObjAddr: 0xEC8C, symBinAddr: 0x10001294C, symSize: 0x80 }
  - { offsetInCU: 0x1E882, offset: 0x1E882, size: 0x8, addend: 0x0, symName: __ZNKSt3__114__split_bufferIiRNS_9allocatorIiEEE9__end_capB7v160006Ev, symObjAddr: 0xED0C, symBinAddr: 0x1000129CC, symSize: 0x28 }
  - { offsetInCU: 0x1E8A8, offset: 0x1E8A8, size: 0x8, addend: 0x0, symName: __ZNKSt3__117__compressed_pairIPiRNS_9allocatorIiEEE5firstB7v160006Ev, symObjAddr: 0xED34, symBinAddr: 0x1000129F4, symSize: 0x24 }
...
